
obj/user/tu_sbrk:     file format elf32-i386


Disassembly of section .text:

00800020 <_start>:
// starts us running when we are initially loaded into a new environment.
.text
.globl _start
_start:
	// See if we were started with arguments on the stack
	mov $0, %eax
  800020:	b8 00 00 00 00       	mov    $0x0,%eax
	cmpl $USTACKTOP, %esp
  800025:	81 fc 00 e0 bf ee    	cmp    $0xeebfe000,%esp
	jne args_exist
  80002b:	75 04                	jne    800031 <args_exist>

	// If not, push dummy argc/argv arguments.
	// This happens when we are loaded by the kernel,
	// because the kernel does not know about passing arguments.
	pushl $0
  80002d:	6a 00                	push   $0x0
	pushl $0
  80002f:	6a 00                	push   $0x0

00800031 <args_exist>:

args_exist:
	call libmain
  800031:	e8 35 07 00 00       	call   80076b <libmain>
1:      jmp 1b
  800036:	eb fe                	jmp    800036 <args_exist+0x5>

00800038 <_main>:

#include <inc/lib.h>

void _main(void)
{
  800038:	55                   	push   %ebp
  800039:	89 e5                	mov    %esp,%ebp
  80003b:	83 ec 68             	sub    $0x68,%esp
	uint32 kilo = 1024;
  80003e:	c7 45 ec 00 04 00 00 	movl   $0x400,-0x14(%ebp)
	uint32 returned_break;
	int freeFrames;
	int usedDiskPages;
	int WsSize;
	uint32 expectedVAs[5] =
  800045:	c7 45 b4 00 00 00 80 	movl   $0x80000000,-0x4c(%ebp)
  80004c:	c7 45 b8 00 10 00 80 	movl   $0x80001000,-0x48(%ebp)
	{USER_HEAP_START, \
			USER_HEAP_START + PAGE_SIZE, \
			(USER_HEAP_START + (2*PAGE_SIZE) - 2*kilo), \
  800053:	8b 55 ec             	mov    -0x14(%ebp),%edx
  800056:	b8 00 00 00 00       	mov    $0x0,%eax
  80005b:	29 d0                	sub    %edx,%eax
  80005d:	01 c0                	add    %eax,%eax
  80005f:	2d 00 e0 ff 7f       	sub    $0x7fffe000,%eax
	uint32 kilo = 1024;
	uint32 returned_break;
	int freeFrames;
	int usedDiskPages;
	int WsSize;
	uint32 expectedVAs[5] =
  800064:	89 45 bc             	mov    %eax,-0x44(%ebp)
	{USER_HEAP_START, \
			USER_HEAP_START + PAGE_SIZE, \
			(USER_HEAP_START + (2*PAGE_SIZE) - 2*kilo), \
			((USER_HEAP_START + PAGE_SIZE) - kilo), \
  800067:	b8 00 10 00 80       	mov    $0x80001000,%eax
  80006c:	2b 45 ec             	sub    -0x14(%ebp),%eax
	uint32 kilo = 1024;
	uint32 returned_break;
	int freeFrames;
	int usedDiskPages;
	int WsSize;
	uint32 expectedVAs[5] =
  80006f:	89 45 c0             	mov    %eax,-0x40(%ebp)
  800072:	c7 45 c4 00 30 00 80 	movl   $0x80003000,-0x3c(%ebp)
			USER_HEAP_START + PAGE_SIZE, \
			(USER_HEAP_START + (2*PAGE_SIZE) - 2*kilo), \
			((USER_HEAP_START + PAGE_SIZE) - kilo), \
			(USER_HEAP_START + 3*PAGE_SIZE), \
	};
	uint32 expectedWSPagesDeleted = {USER_HEAP_START};
  800079:	c7 45 e8 00 00 00 80 	movl   $0x80000000,-0x18(%ebp)
	int old_eval = 0;
  800080:	c7 45 e4 00 00 00 00 	movl   $0x0,-0x1c(%ebp)
	int eval = 0;
  800087:	c7 45 f4 00 00 00 00 	movl   $0x0,-0xc(%ebp)
	int found;

	uint32* int_arr2;
	bool is_correct = 1;
  80008e:	c7 45 f0 01 00 00 00 	movl   $0x1,-0x10(%ebp)

	cprintf("STEP A: checking increment with +ve value [increment from aligned segment break] ... \n");
  800095:	83 ec 0c             	sub    $0xc,%esp
  800098:	68 80 37 80 00       	push   $0x803780
  80009d:	e8 cb 08 00 00       	call   80096d <cprintf>
  8000a2:	83 c4 10             	add    $0x10,%esp
	{
		freeFrames = (int)sys_calculate_free_frames();
  8000a5:	e8 0b 1b 00 00       	call   801bb5 <sys_calculate_free_frames>
  8000aa:	89 45 e0             	mov    %eax,-0x20(%ebp)
		usedDiskPages = sys_pf_calculate_allocated_pages();
  8000ad:	e8 4e 1b 00 00       	call   801c00 <sys_pf_calculate_allocated_pages>
  8000b2:	89 45 dc             	mov    %eax,-0x24(%ebp)
		WsSize = LIST_SIZE(&(myEnv->page_WS_list));
  8000b5:	a1 20 50 80 00       	mov    0x805020,%eax
  8000ba:	8b 80 d8 00 00 00    	mov    0xd8(%eax),%eax
  8000c0:	89 45 d8             	mov    %eax,-0x28(%ebp)
		uint32* int_arr = malloc(512 * sizeof(uint32));
  8000c3:	83 ec 0c             	sub    $0xc,%esp
  8000c6:	68 00 08 00 00       	push   $0x800
  8000cb:	e8 c6 16 00 00       	call   801796 <malloc>
  8000d0:	83 c4 10             	add    $0x10,%esp
  8000d3:	89 45 d4             	mov    %eax,-0x2c(%ebp)
		int_arr[0] = 500;
  8000d6:	8b 45 d4             	mov    -0x2c(%ebp),%eax
  8000d9:	c7 00 f4 01 00 00    	movl   $0x1f4,(%eax)
		if (((uint32)int_arr - sizeOfMetaData())!=expectedVAs[0])
  8000df:	8b 45 d4             	mov    -0x2c(%ebp),%eax
  8000e2:	8d 50 f0             	lea    -0x10(%eax),%edx
  8000e5:	8b 45 b4             	mov    -0x4c(%ebp),%eax
  8000e8:	39 c2                	cmp    %eax,%edx
  8000ea:	74 22                	je     80010e <_main+0xd6>
		{ is_correct = 0; cprintf("Wrong returned break: Expected: %x, Actual: %x\n", expectedVAs[0], ((uint32)int_arr - sizeOfMetaData()));}
  8000ec:	c7 45 f0 00 00 00 00 	movl   $0x0,-0x10(%ebp)
  8000f3:	8b 45 d4             	mov    -0x2c(%ebp),%eax
  8000f6:	8d 50 f0             	lea    -0x10(%eax),%edx
  8000f9:	8b 45 b4             	mov    -0x4c(%ebp),%eax
  8000fc:	83 ec 04             	sub    $0x4,%esp
  8000ff:	52                   	push   %edx
  800100:	50                   	push   %eax
  800101:	68 d8 37 80 00       	push   $0x8037d8
  800106:	e8 62 08 00 00       	call   80096d <cprintf>
  80010b:	83 c4 10             	add    $0x10,%esp

		if ((freeFrames - (int)sys_calculate_free_frames())!=2) /* Two frames were allocated for page table creation + first page for block allocator*/
  80010e:	e8 a2 1a 00 00       	call   801bb5 <sys_calculate_free_frames>
  800113:	89 c2                	mov    %eax,%edx
  800115:	8b 45 e0             	mov    -0x20(%ebp),%eax
  800118:	29 d0                	sub    %edx,%eax
  80011a:	83 f8 02             	cmp    $0x2,%eax
  80011d:	74 26                	je     800145 <_main+0x10d>
		{ is_correct = 0; cprintf("Wrong free frames count: allocated memory size incorrect. Expected Difference = %d, Actual = %d\n", 1, (freeFrames - (int)sys_calculate_free_frames()));}
  80011f:	c7 45 f0 00 00 00 00 	movl   $0x0,-0x10(%ebp)
  800126:	e8 8a 1a 00 00       	call   801bb5 <sys_calculate_free_frames>
  80012b:	89 c2                	mov    %eax,%edx
  80012d:	8b 45 e0             	mov    -0x20(%ebp),%eax
  800130:	29 d0                	sub    %edx,%eax
  800132:	83 ec 04             	sub    $0x4,%esp
  800135:	50                   	push   %eax
  800136:	6a 01                	push   $0x1
  800138:	68 08 38 80 00       	push   $0x803808
  80013d:	e8 2b 08 00 00       	call   80096d <cprintf>
  800142:	83 c4 10             	add    $0x10,%esp

		if (sys_pf_calculate_allocated_pages()!=usedDiskPages)
  800145:	e8 b6 1a 00 00       	call   801c00 <sys_pf_calculate_allocated_pages>
  80014a:	3b 45 dc             	cmp    -0x24(%ebp),%eax
  80014d:	74 26                	je     800175 <_main+0x13d>
		{ is_correct = 0; cprintf("Wrong free page file pages count: allocated page file size incorrect. Expected Difference = %d, Actual = %d\n", 0, (usedDiskPages - sys_pf_calculate_allocated_pages()));}
  80014f:	c7 45 f0 00 00 00 00 	movl   $0x0,-0x10(%ebp)
  800156:	e8 a5 1a 00 00       	call   801c00 <sys_pf_calculate_allocated_pages>
  80015b:	8b 55 dc             	mov    -0x24(%ebp),%edx
  80015e:	29 c2                	sub    %eax,%edx
  800160:	89 d0                	mov    %edx,%eax
  800162:	83 ec 04             	sub    $0x4,%esp
  800165:	50                   	push   %eax
  800166:	6a 00                	push   $0x0
  800168:	68 6c 38 80 00       	push   $0x80386c
  80016d:	e8 fb 07 00 00       	call   80096d <cprintf>
  800172:	83 c4 10             	add    $0x10,%esp

		if ((LIST_SIZE(&(myEnv->page_WS_list)) - WsSize)!=1) /* Page fault were occurred when we try to initialize the first block in the block allocator */
  800175:	a1 20 50 80 00       	mov    0x805020,%eax
  80017a:	8b 90 d8 00 00 00    	mov    0xd8(%eax),%edx
  800180:	8b 45 d8             	mov    -0x28(%ebp),%eax
  800183:	29 c2                	sub    %eax,%edx
  800185:	89 d0                	mov    %edx,%eax
  800187:	83 f8 01             	cmp    $0x1,%eax
  80018a:	74 17                	je     8001a3 <_main+0x16b>
		{ is_correct = 0; cprintf("Wrong size for WS size: new page(s) was/were added to the working set while it/they should NOT be written");}
  80018c:	c7 45 f0 00 00 00 00 	movl   $0x0,-0x10(%ebp)
  800193:	83 ec 0c             	sub    $0xc,%esp
  800196:	68 dc 38 80 00       	push   $0x8038dc
  80019b:	e8 cd 07 00 00       	call   80096d <cprintf>
  8001a0:	83 c4 10             	add    $0x10,%esp

		if (is_correct)
  8001a3:	83 7d f0 00          	cmpl   $0x0,-0x10(%ebp)
  8001a7:	74 12                	je     8001bb <_main+0x183>
			cprintf("STEP A PASSED: checking increment with +ve value [increment from aligned segment break] works!\n\n\n");
  8001a9:	83 ec 0c             	sub    $0xc,%esp
  8001ac:	68 48 39 80 00       	push   $0x803948
  8001b1:	e8 b7 07 00 00       	call   80096d <cprintf>
  8001b6:	83 c4 10             	add    $0x10,%esp
  8001b9:	eb 10                	jmp    8001cb <_main+0x193>
		else
			cprintf("STEP A finished with problems\n");
  8001bb:	83 ec 0c             	sub    $0xc,%esp
  8001be:	68 ac 39 80 00       	push   $0x8039ac
  8001c3:	e8 a5 07 00 00       	call   80096d <cprintf>
  8001c8:	83 c4 10             	add    $0x10,%esp
		old_eval = eval;
  8001cb:	8b 45 f4             	mov    -0xc(%ebp),%eax
  8001ce:	89 45 e4             	mov    %eax,-0x1c(%ebp)
	}
	if (is_correct)
  8001d1:	83 7d f0 00          	cmpl   $0x0,-0x10(%ebp)
  8001d5:	74 04                	je     8001db <_main+0x1a3>
	{
		eval += 20;
  8001d7:	83 45 f4 14          	addl   $0x14,-0xc(%ebp)
	}
	is_correct = 1;
  8001db:	c7 45 f0 01 00 00 00 	movl   $0x1,-0x10(%ebp)

	/*******************************************************************/
	/*******************************************************************/

	cprintf("STEP B: checking increment with zero value ... \n");
  8001e2:	83 ec 0c             	sub    $0xc,%esp
  8001e5:	68 cc 39 80 00       	push   $0x8039cc
  8001ea:	e8 7e 07 00 00       	call   80096d <cprintf>
  8001ef:	83 c4 10             	add    $0x10,%esp
	{
		freeFrames = (int)sys_calculate_free_frames();
  8001f2:	e8 be 19 00 00       	call   801bb5 <sys_calculate_free_frames>
  8001f7:	89 45 e0             	mov    %eax,-0x20(%ebp)
		usedDiskPages = sys_pf_calculate_allocated_pages();
  8001fa:	e8 01 1a 00 00       	call   801c00 <sys_pf_calculate_allocated_pages>
  8001ff:	89 45 dc             	mov    %eax,-0x24(%ebp)
		WsSize = LIST_SIZE(&(myEnv->page_WS_list));
  800202:	a1 20 50 80 00       	mov    0x805020,%eax
  800207:	8b 80 d8 00 00 00    	mov    0xd8(%eax),%eax
  80020d:	89 45 d8             	mov    %eax,-0x28(%ebp)
		returned_break = (uint32)sys_sbrk(0);
  800210:	83 ec 0c             	sub    $0xc,%esp
  800213:	6a 00                	push   $0x0
  800215:	e8 f5 1e 00 00       	call   80210f <sys_sbrk>
  80021a:	83 c4 10             	add    $0x10,%esp
  80021d:	89 45 d0             	mov    %eax,-0x30(%ebp)
		if (returned_break!=expectedVAs[1])
  800220:	8b 45 b8             	mov    -0x48(%ebp),%eax
  800223:	3b 45 d0             	cmp    -0x30(%ebp),%eax
  800226:	74 1e                	je     800246 <_main+0x20e>
		{ is_correct = 0; cprintf("Wrong returned break: Expected: %x, Actual: %x\n", expectedVAs[1], returned_break);}
  800228:	c7 45 f0 00 00 00 00 	movl   $0x0,-0x10(%ebp)
  80022f:	8b 45 b8             	mov    -0x48(%ebp),%eax
  800232:	83 ec 04             	sub    $0x4,%esp
  800235:	ff 75 d0             	pushl  -0x30(%ebp)
  800238:	50                   	push   %eax
  800239:	68 d8 37 80 00       	push   $0x8037d8
  80023e:	e8 2a 07 00 00       	call   80096d <cprintf>
  800243:	83 c4 10             	add    $0x10,%esp

		if (is_correct)
  800246:	83 7d f0 00          	cmpl   $0x0,-0x10(%ebp)
  80024a:	74 12                	je     80025e <_main+0x226>
			cprintf("STEP B PASSED: checking increment with zero value works!\n\n\n");
  80024c:	83 ec 0c             	sub    $0xc,%esp
  80024f:	68 00 3a 80 00       	push   $0x803a00
  800254:	e8 14 07 00 00       	call   80096d <cprintf>
  800259:	83 c4 10             	add    $0x10,%esp
  80025c:	eb 10                	jmp    80026e <_main+0x236>
		else
			cprintf("STEP B finished with problems\n");
  80025e:	83 ec 0c             	sub    $0xc,%esp
  800261:	68 3c 3a 80 00       	push   $0x803a3c
  800266:	e8 02 07 00 00       	call   80096d <cprintf>
  80026b:	83 c4 10             	add    $0x10,%esp
		old_eval = eval;
  80026e:	8b 45 f4             	mov    -0xc(%ebp),%eax
  800271:	89 45 e4             	mov    %eax,-0x1c(%ebp)
	}
	if (is_correct)
  800274:	83 7d f0 00          	cmpl   $0x0,-0x10(%ebp)
  800278:	74 04                	je     80027e <_main+0x246>
	{
		eval += 5;
  80027a:	83 45 f4 05          	addl   $0x5,-0xc(%ebp)
	}
	is_correct = 1;
  80027e:	c7 45 f0 01 00 00 00 	movl   $0x1,-0x10(%ebp)

	/*******************************************************************/
	/*******************************************************************/

	cprintf("STEP C: checking increment with -ve value [No de-allocation case] ... \n");
  800285:	83 ec 0c             	sub    $0xc,%esp
  800288:	68 5c 3a 80 00       	push   $0x803a5c
  80028d:	e8 db 06 00 00       	call   80096d <cprintf>
  800292:	83 c4 10             	add    $0x10,%esp
	{
		int_arr2 = malloc(512 * sizeof(uint32));
  800295:	83 ec 0c             	sub    $0xc,%esp
  800298:	68 00 08 00 00       	push   $0x800
  80029d:	e8 f4 14 00 00       	call   801796 <malloc>
  8002a2:	83 c4 10             	add    $0x10,%esp
  8002a5:	89 45 cc             	mov    %eax,-0x34(%ebp)
		// Accessing to arr to make page fault and handle it
		int_arr2[32] = 300;
  8002a8:	8b 45 cc             	mov    -0x34(%ebp),%eax
  8002ab:	83 e8 80             	sub    $0xffffff80,%eax
  8002ae:	c7 00 2c 01 00 00    	movl   $0x12c,(%eax)
		freeFrames = (int)sys_calculate_free_frames();
  8002b4:	e8 fc 18 00 00       	call   801bb5 <sys_calculate_free_frames>
  8002b9:	89 45 e0             	mov    %eax,-0x20(%ebp)
		usedDiskPages = sys_pf_calculate_allocated_pages();
  8002bc:	e8 3f 19 00 00       	call   801c00 <sys_pf_calculate_allocated_pages>
  8002c1:	89 45 dc             	mov    %eax,-0x24(%ebp)
		WsSize = LIST_SIZE(&(myEnv->page_WS_list));
  8002c4:	a1 20 50 80 00       	mov    0x805020,%eax
  8002c9:	8b 80 d8 00 00 00    	mov    0xd8(%eax),%eax
  8002cf:	89 45 d8             	mov    %eax,-0x28(%ebp)
		sys_sbrk(-2*kilo);
  8002d2:	8b 55 ec             	mov    -0x14(%ebp),%edx
  8002d5:	b8 00 00 00 00       	mov    $0x0,%eax
  8002da:	29 d0                	sub    %edx,%eax
  8002dc:	01 c0                	add    %eax,%eax
  8002de:	83 ec 0c             	sub    $0xc,%esp
  8002e1:	50                   	push   %eax
  8002e2:	e8 28 1e 00 00       	call   80210f <sys_sbrk>
  8002e7:	83 c4 10             	add    $0x10,%esp
		returned_break = (uint32)sys_sbrk(0);
  8002ea:	83 ec 0c             	sub    $0xc,%esp
  8002ed:	6a 00                	push   $0x0
  8002ef:	e8 1b 1e 00 00       	call   80210f <sys_sbrk>
  8002f4:	83 c4 10             	add    $0x10,%esp
  8002f7:	89 45 d0             	mov    %eax,-0x30(%ebp)
		if (returned_break!=expectedVAs[2])
  8002fa:	8b 45 bc             	mov    -0x44(%ebp),%eax
  8002fd:	3b 45 d0             	cmp    -0x30(%ebp),%eax
  800300:	74 1e                	je     800320 <_main+0x2e8>
		{ is_correct = 0; cprintf("Wrong returned break: Expected: %x, Actual: %x\n", expectedVAs[2], returned_break);}
  800302:	c7 45 f0 00 00 00 00 	movl   $0x0,-0x10(%ebp)
  800309:	8b 45 bc             	mov    -0x44(%ebp),%eax
  80030c:	83 ec 04             	sub    $0x4,%esp
  80030f:	ff 75 d0             	pushl  -0x30(%ebp)
  800312:	50                   	push   %eax
  800313:	68 d8 37 80 00       	push   $0x8037d8
  800318:	e8 50 06 00 00       	call   80096d <cprintf>
  80031d:	83 c4 10             	add    $0x10,%esp

		if ((int)sys_calculate_free_frames()!=freeFrames)
  800320:	e8 90 18 00 00       	call   801bb5 <sys_calculate_free_frames>
  800325:	3b 45 e0             	cmp    -0x20(%ebp),%eax
  800328:	74 26                	je     800350 <_main+0x318>
		{ is_correct = 0; cprintf("Wrong free frames count: allocated memory size incorrect. Expected Difference = %d, Actual = %d\n", 0, (freeFrames - (int)sys_calculate_free_frames()));}
  80032a:	c7 45 f0 00 00 00 00 	movl   $0x0,-0x10(%ebp)
  800331:	e8 7f 18 00 00       	call   801bb5 <sys_calculate_free_frames>
  800336:	89 c2                	mov    %eax,%edx
  800338:	8b 45 e0             	mov    -0x20(%ebp),%eax
  80033b:	29 d0                	sub    %edx,%eax
  80033d:	83 ec 04             	sub    $0x4,%esp
  800340:	50                   	push   %eax
  800341:	6a 00                	push   $0x0
  800343:	68 08 38 80 00       	push   $0x803808
  800348:	e8 20 06 00 00       	call   80096d <cprintf>
  80034d:	83 c4 10             	add    $0x10,%esp

		if (sys_pf_calculate_allocated_pages()!=usedDiskPages)
  800350:	e8 ab 18 00 00       	call   801c00 <sys_pf_calculate_allocated_pages>
  800355:	3b 45 dc             	cmp    -0x24(%ebp),%eax
  800358:	74 26                	je     800380 <_main+0x348>
		{ is_correct = 0; cprintf("Wrong free page file pages count: allocated page file size incorrect. Expected Difference = %d, Actual = %d\n", 0, (usedDiskPages - sys_pf_calculate_allocated_pages()));}
  80035a:	c7 45 f0 00 00 00 00 	movl   $0x0,-0x10(%ebp)
  800361:	e8 9a 18 00 00       	call   801c00 <sys_pf_calculate_allocated_pages>
  800366:	8b 55 dc             	mov    -0x24(%ebp),%edx
  800369:	29 c2                	sub    %eax,%edx
  80036b:	89 d0                	mov    %edx,%eax
  80036d:	83 ec 04             	sub    $0x4,%esp
  800370:	50                   	push   %eax
  800371:	6a 00                	push   $0x0
  800373:	68 6c 38 80 00       	push   $0x80386c
  800378:	e8 f0 05 00 00       	call   80096d <cprintf>
  80037d:	83 c4 10             	add    $0x10,%esp

		if (LIST_SIZE(&(myEnv->page_WS_list))!=WsSize)
  800380:	a1 20 50 80 00       	mov    0x805020,%eax
  800385:	8b 90 d8 00 00 00    	mov    0xd8(%eax),%edx
  80038b:	8b 45 d8             	mov    -0x28(%ebp),%eax
  80038e:	39 c2                	cmp    %eax,%edx
  800390:	74 17                	je     8003a9 <_main+0x371>
		{ is_correct = 0; cprintf("Wrong size for WS size: new page(s) was/were added to the working set while it/they should NOT be written");}
  800392:	c7 45 f0 00 00 00 00 	movl   $0x0,-0x10(%ebp)
  800399:	83 ec 0c             	sub    $0xc,%esp
  80039c:	68 dc 38 80 00       	push   $0x8038dc
  8003a1:	e8 c7 05 00 00       	call   80096d <cprintf>
  8003a6:	83 c4 10             	add    $0x10,%esp

		uint32 MentToFound [2] = {USER_HEAP_START, USER_HEAP_START + PAGE_SIZE};
  8003a9:	c7 45 ac 00 00 00 80 	movl   $0x80000000,-0x54(%ebp)
  8003b0:	c7 45 b0 00 10 00 80 	movl   $0x80001000,-0x50(%ebp)
		found = sys_check_WS_list(MentToFound, 2, 0, 2);
  8003b7:	6a 02                	push   $0x2
  8003b9:	6a 00                	push   $0x0
  8003bb:	6a 02                	push   $0x2
  8003bd:	8d 45 ac             	lea    -0x54(%ebp),%eax
  8003c0:	50                   	push   %eax
  8003c1:	e8 0c 1d 00 00       	call   8020d2 <sys_check_WS_list>
  8003c6:	83 c4 10             	add    $0x10,%esp
  8003c9:	89 45 c8             	mov    %eax,-0x38(%ebp)
		if (!found)
  8003cc:	83 7d c8 00          	cmpl   $0x0,-0x38(%ebp)
  8003d0:	75 17                	jne    8003e9 <_main+0x3b1>
		{ is_correct = 0; cprintf("Unexpected page were removed from working set\n");}
  8003d2:	c7 45 f0 00 00 00 00 	movl   $0x0,-0x10(%ebp)
  8003d9:	83 ec 0c             	sub    $0xc,%esp
  8003dc:	68 a4 3a 80 00       	push   $0x803aa4
  8003e1:	e8 87 05 00 00       	call   80096d <cprintf>
  8003e6:	83 c4 10             	add    $0x10,%esp

		if (is_correct)
  8003e9:	83 7d f0 00          	cmpl   $0x0,-0x10(%ebp)
  8003ed:	74 12                	je     800401 <_main+0x3c9>
			cprintf("STEP C PASSED: checking increment with -ve value [No de-allocation case] works!\n\n\n");
  8003ef:	83 ec 0c             	sub    $0xc,%esp
  8003f2:	68 d4 3a 80 00       	push   $0x803ad4
  8003f7:	e8 71 05 00 00       	call   80096d <cprintf>
  8003fc:	83 c4 10             	add    $0x10,%esp
  8003ff:	eb 10                	jmp    800411 <_main+0x3d9>
		else
			cprintf("STEP C finished with problems\n");
  800401:	83 ec 0c             	sub    $0xc,%esp
  800404:	68 28 3b 80 00       	push   $0x803b28
  800409:	e8 5f 05 00 00       	call   80096d <cprintf>
  80040e:	83 c4 10             	add    $0x10,%esp
		old_eval = eval;
  800411:	8b 45 f4             	mov    -0xc(%ebp),%eax
  800414:	89 45 e4             	mov    %eax,-0x1c(%ebp)
	}
	if (is_correct)
  800417:	83 7d f0 00          	cmpl   $0x0,-0x10(%ebp)
  80041b:	74 04                	je     800421 <_main+0x3e9>
	{
		eval += 25;
  80041d:	83 45 f4 19          	addl   $0x19,-0xc(%ebp)
	}
	is_correct = 1;
  800421:	c7 45 f0 01 00 00 00 	movl   $0x1,-0x10(%ebp)

	/*******************************************************************/
	/*******************************************************************/

	cprintf("STEP D: checking increment with -ve value [De-allocation case] ... \n");
  800428:	83 ec 0c             	sub    $0xc,%esp
  80042b:	68 48 3b 80 00       	push   $0x803b48
  800430:	e8 38 05 00 00       	call   80096d <cprintf>
  800435:	83 c4 10             	add    $0x10,%esp
	{
		freeFrames = (int)sys_calculate_free_frames();
  800438:	e8 78 17 00 00       	call   801bb5 <sys_calculate_free_frames>
  80043d:	89 45 e0             	mov    %eax,-0x20(%ebp)
		free(int_arr2) ; //free the allocated 2KB first
  800440:	83 ec 0c             	sub    $0xc,%esp
  800443:	ff 75 cc             	pushl  -0x34(%ebp)
  800446:	e8 a7 14 00 00       	call   8018f2 <free>
  80044b:	83 c4 10             	add    $0x10,%esp
		if (((int)sys_calculate_free_frames()-freeFrames)!=0) /* Free frames should not be affected since the free() doesn't remove from memory */
  80044e:	e8 62 17 00 00       	call   801bb5 <sys_calculate_free_frames>
  800453:	3b 45 e0             	cmp    -0x20(%ebp),%eax
  800456:	74 22                	je     80047a <_main+0x442>
		{ is_correct = 0; cprintf("Wrong free frames count: allocated memory size incorrect. Expected Difference = %d, Actual = %d\n", 1, ((int)sys_calculate_free_frames() - freeFrames));}
  800458:	c7 45 f0 00 00 00 00 	movl   $0x0,-0x10(%ebp)
  80045f:	e8 51 17 00 00       	call   801bb5 <sys_calculate_free_frames>
  800464:	2b 45 e0             	sub    -0x20(%ebp),%eax
  800467:	83 ec 04             	sub    $0x4,%esp
  80046a:	50                   	push   %eax
  80046b:	6a 01                	push   $0x1
  80046d:	68 08 38 80 00       	push   $0x803808
  800472:	e8 f6 04 00 00       	call   80096d <cprintf>
  800477:	83 c4 10             	add    $0x10,%esp

		freeFrames = (int)sys_calculate_free_frames();
  80047a:	e8 36 17 00 00       	call   801bb5 <sys_calculate_free_frames>
  80047f:	89 45 e0             	mov    %eax,-0x20(%ebp)
		usedDiskPages = sys_pf_calculate_allocated_pages();
  800482:	e8 79 17 00 00       	call   801c00 <sys_pf_calculate_allocated_pages>
  800487:	89 45 dc             	mov    %eax,-0x24(%ebp)
		WsSize = LIST_SIZE(&(myEnv->page_WS_list));
  80048a:	a1 20 50 80 00       	mov    0x805020,%eax
  80048f:	8b 80 d8 00 00 00    	mov    0xd8(%eax),%eax
  800495:	89 45 d8             	mov    %eax,-0x28(%ebp)
		sys_sbrk(-3*kilo);
  800498:	8b 45 ec             	mov    -0x14(%ebp),%eax
  80049b:	89 c2                	mov    %eax,%edx
  80049d:	01 d2                	add    %edx,%edx
  80049f:	01 d0                	add    %edx,%eax
  8004a1:	f7 d8                	neg    %eax
  8004a3:	83 ec 0c             	sub    $0xc,%esp
  8004a6:	50                   	push   %eax
  8004a7:	e8 63 1c 00 00       	call   80210f <sys_sbrk>
  8004ac:	83 c4 10             	add    $0x10,%esp
		returned_break = (uint32)sys_sbrk(0);
  8004af:	83 ec 0c             	sub    $0xc,%esp
  8004b2:	6a 00                	push   $0x0
  8004b4:	e8 56 1c 00 00       	call   80210f <sys_sbrk>
  8004b9:	83 c4 10             	add    $0x10,%esp
  8004bc:	89 45 d0             	mov    %eax,-0x30(%ebp)
		if (returned_break!=expectedVAs[3])
  8004bf:	8b 45 c0             	mov    -0x40(%ebp),%eax
  8004c2:	3b 45 d0             	cmp    -0x30(%ebp),%eax
  8004c5:	74 1e                	je     8004e5 <_main+0x4ad>
		{ is_correct = 0; cprintf("Wrong returned break: Expected: %x, Actual: %x\n", expectedVAs[3], returned_break);}
  8004c7:	c7 45 f0 00 00 00 00 	movl   $0x0,-0x10(%ebp)
  8004ce:	8b 45 c0             	mov    -0x40(%ebp),%eax
  8004d1:	83 ec 04             	sub    $0x4,%esp
  8004d4:	ff 75 d0             	pushl  -0x30(%ebp)
  8004d7:	50                   	push   %eax
  8004d8:	68 d8 37 80 00       	push   $0x8037d8
  8004dd:	e8 8b 04 00 00       	call   80096d <cprintf>
  8004e2:	83 c4 10             	add    $0x10,%esp

		if (((int)sys_calculate_free_frames()-freeFrames)!=1) /* Free frames increased by one due to crossing the page boundary */
  8004e5:	e8 cb 16 00 00       	call   801bb5 <sys_calculate_free_frames>
  8004ea:	2b 45 e0             	sub    -0x20(%ebp),%eax
  8004ed:	83 f8 01             	cmp    $0x1,%eax
  8004f0:	74 22                	je     800514 <_main+0x4dc>
		{ is_correct = 0; cprintf("Wrong free frames count: allocated memory size incorrect. Expected Difference = %d, Actual = %d\n", 1, ((int)sys_calculate_free_frames() - freeFrames));}
  8004f2:	c7 45 f0 00 00 00 00 	movl   $0x0,-0x10(%ebp)
  8004f9:	e8 b7 16 00 00       	call   801bb5 <sys_calculate_free_frames>
  8004fe:	2b 45 e0             	sub    -0x20(%ebp),%eax
  800501:	83 ec 04             	sub    $0x4,%esp
  800504:	50                   	push   %eax
  800505:	6a 01                	push   $0x1
  800507:	68 08 38 80 00       	push   $0x803808
  80050c:	e8 5c 04 00 00       	call   80096d <cprintf>
  800511:	83 c4 10             	add    $0x10,%esp

		if (sys_pf_calculate_allocated_pages()!=usedDiskPages)
  800514:	e8 e7 16 00 00       	call   801c00 <sys_pf_calculate_allocated_pages>
  800519:	3b 45 dc             	cmp    -0x24(%ebp),%eax
  80051c:	74 26                	je     800544 <_main+0x50c>
		{ is_correct = 0; cprintf("Wrong free page file pages count: allocated page file size incorrect. Expected Difference = %d, Actual = %d\n", 0, (usedDiskPages - sys_pf_calculate_allocated_pages()));}
  80051e:	c7 45 f0 00 00 00 00 	movl   $0x0,-0x10(%ebp)
  800525:	e8 d6 16 00 00       	call   801c00 <sys_pf_calculate_allocated_pages>
  80052a:	8b 55 dc             	mov    -0x24(%ebp),%edx
  80052d:	29 c2                	sub    %eax,%edx
  80052f:	89 d0                	mov    %edx,%eax
  800531:	83 ec 04             	sub    $0x4,%esp
  800534:	50                   	push   %eax
  800535:	6a 00                	push   $0x0
  800537:	68 6c 38 80 00       	push   $0x80386c
  80053c:	e8 2c 04 00 00       	call   80096d <cprintf>
  800541:	83 c4 10             	add    $0x10,%esp

		if (WsSize - LIST_SIZE(&(myEnv->page_WS_list))!=1)
  800544:	8b 55 d8             	mov    -0x28(%ebp),%edx
  800547:	a1 20 50 80 00       	mov    0x805020,%eax
  80054c:	8b 80 d8 00 00 00    	mov    0xd8(%eax),%eax
  800552:	29 c2                	sub    %eax,%edx
  800554:	89 d0                	mov    %edx,%eax
  800556:	83 f8 01             	cmp    $0x1,%eax
  800559:	74 17                	je     800572 <_main+0x53a>
		{ is_correct = 0; cprintf("Wrong size for WS size: removed page(s) was/were not removed from the working set");}
  80055b:	c7 45 f0 00 00 00 00 	movl   $0x0,-0x10(%ebp)
  800562:	83 ec 0c             	sub    $0xc,%esp
  800565:	68 90 3b 80 00       	push   $0x803b90
  80056a:	e8 fe 03 00 00       	call   80096d <cprintf>
  80056f:	83 c4 10             	add    $0x10,%esp

		uint32 MentToFound2 [1] = {USER_HEAP_START + PAGE_SIZE};
  800572:	c7 45 a8 00 10 00 80 	movl   $0x80001000,-0x58(%ebp)
		found = sys_check_WS_list(MentToFound2, 1, 0, 2);
  800579:	6a 02                	push   $0x2
  80057b:	6a 00                	push   $0x0
  80057d:	6a 01                	push   $0x1
  80057f:	8d 45 a8             	lea    -0x58(%ebp),%eax
  800582:	50                   	push   %eax
  800583:	e8 4a 1b 00 00       	call   8020d2 <sys_check_WS_list>
  800588:	83 c4 10             	add    $0x10,%esp
  80058b:	89 45 c8             	mov    %eax,-0x38(%ebp)
		if (found)
  80058e:	83 7d c8 00          	cmpl   $0x0,-0x38(%ebp)
  800592:	74 17                	je     8005ab <_main+0x573>
		{ is_correct = 0; cprintf("Unexpected page should be removed from the working set but it's NOT\n");}
  800594:	c7 45 f0 00 00 00 00 	movl   $0x0,-0x10(%ebp)
  80059b:	83 ec 0c             	sub    $0xc,%esp
  80059e:	68 e4 3b 80 00       	push   $0x803be4
  8005a3:	e8 c5 03 00 00       	call   80096d <cprintf>
  8005a8:	83 c4 10             	add    $0x10,%esp

		if (is_correct)
  8005ab:	83 7d f0 00          	cmpl   $0x0,-0x10(%ebp)
  8005af:	74 12                	je     8005c3 <_main+0x58b>
			cprintf("STEP D PASSED: checking increment with -ve value [De-allocation case] works!\n\n\n");
  8005b1:	83 ec 0c             	sub    $0xc,%esp
  8005b4:	68 2c 3c 80 00       	push   $0x803c2c
  8005b9:	e8 af 03 00 00       	call   80096d <cprintf>
  8005be:	83 c4 10             	add    $0x10,%esp
  8005c1:	eb 10                	jmp    8005d3 <_main+0x59b>
		else
			cprintf("STEP D finished with problems\n");
  8005c3:	83 ec 0c             	sub    $0xc,%esp
  8005c6:	68 7c 3c 80 00       	push   $0x803c7c
  8005cb:	e8 9d 03 00 00       	call   80096d <cprintf>
  8005d0:	83 c4 10             	add    $0x10,%esp
		old_eval = eval;
  8005d3:	8b 45 f4             	mov    -0xc(%ebp),%eax
  8005d6:	89 45 e4             	mov    %eax,-0x1c(%ebp)
	}
	if (is_correct)
  8005d9:	83 7d f0 00          	cmpl   $0x0,-0x10(%ebp)
  8005dd:	74 04                	je     8005e3 <_main+0x5ab>
	{
		eval += 25;
  8005df:	83 45 f4 19          	addl   $0x19,-0xc(%ebp)
	}
	is_correct = 1;
  8005e3:	c7 45 f0 01 00 00 00 	movl   $0x1,-0x10(%ebp)

	/*******************************************************************/
	/*******************************************************************/
	cprintf("STEP E: checking increment with +ve value ... \n");
  8005ea:	83 ec 0c             	sub    $0xc,%esp
  8005ed:	68 9c 3c 80 00       	push   $0x803c9c
  8005f2:	e8 76 03 00 00       	call   80096d <cprintf>
  8005f7:	83 c4 10             	add    $0x10,%esp
	{
		freeFrames = (int)sys_calculate_free_frames();
  8005fa:	e8 b6 15 00 00       	call   801bb5 <sys_calculate_free_frames>
  8005ff:	89 45 e0             	mov    %eax,-0x20(%ebp)
		usedDiskPages = sys_pf_calculate_allocated_pages();
  800602:	e8 f9 15 00 00       	call   801c00 <sys_pf_calculate_allocated_pages>
  800607:	89 45 dc             	mov    %eax,-0x24(%ebp)
		WsSize = LIST_SIZE(&(myEnv->page_WS_list));
  80060a:	a1 20 50 80 00       	mov    0x805020,%eax
  80060f:	8b 80 d8 00 00 00    	mov    0xd8(%eax),%eax
  800615:	89 45 d8             	mov    %eax,-0x28(%ebp)
		sys_sbrk(512);
  800618:	83 ec 0c             	sub    $0xc,%esp
  80061b:	68 00 02 00 00       	push   $0x200
  800620:	e8 ea 1a 00 00       	call   80210f <sys_sbrk>
  800625:	83 c4 10             	add    $0x10,%esp
		returned_break = (uint32)sys_sbrk(0);
  800628:	83 ec 0c             	sub    $0xc,%esp
  80062b:	6a 00                	push   $0x0
  80062d:	e8 dd 1a 00 00       	call   80210f <sys_sbrk>
  800632:	83 c4 10             	add    $0x10,%esp
  800635:	89 45 d0             	mov    %eax,-0x30(%ebp)
		if (returned_break!=expectedVAs[1])
  800638:	8b 45 b8             	mov    -0x48(%ebp),%eax
  80063b:	3b 45 d0             	cmp    -0x30(%ebp),%eax
  80063e:	74 1e                	je     80065e <_main+0x626>
		{ is_correct = 0; cprintf("Wrong returned break: Expected: %x, Actual: %x\n", expectedVAs[1], returned_break);}
  800640:	c7 45 f0 00 00 00 00 	movl   $0x0,-0x10(%ebp)
  800647:	8b 45 b8             	mov    -0x48(%ebp),%eax
  80064a:	83 ec 04             	sub    $0x4,%esp
  80064d:	ff 75 d0             	pushl  -0x30(%ebp)
  800650:	50                   	push   %eax
  800651:	68 d8 37 80 00       	push   $0x8037d8
  800656:	e8 12 03 00 00       	call   80096d <cprintf>
  80065b:	83 c4 10             	add    $0x10,%esp

		if (((int)sys_calculate_free_frames()-freeFrames)!=0)
  80065e:	e8 52 15 00 00       	call   801bb5 <sys_calculate_free_frames>
  800663:	3b 45 e0             	cmp    -0x20(%ebp),%eax
  800666:	74 22                	je     80068a <_main+0x652>
		{ is_correct = 0; cprintf("Wrong free frames count: allocated memory size incorrect. Expected Difference = %d, Actual = %d\n", 0, ((int)sys_calculate_free_frames() - freeFrames));}
  800668:	c7 45 f0 00 00 00 00 	movl   $0x0,-0x10(%ebp)
  80066f:	e8 41 15 00 00       	call   801bb5 <sys_calculate_free_frames>
  800674:	2b 45 e0             	sub    -0x20(%ebp),%eax
  800677:	83 ec 04             	sub    $0x4,%esp
  80067a:	50                   	push   %eax
  80067b:	6a 00                	push   $0x0
  80067d:	68 08 38 80 00       	push   $0x803808
  800682:	e8 e6 02 00 00       	call   80096d <cprintf>
  800687:	83 c4 10             	add    $0x10,%esp

		if (sys_pf_calculate_allocated_pages()!=usedDiskPages)
  80068a:	e8 71 15 00 00       	call   801c00 <sys_pf_calculate_allocated_pages>
  80068f:	3b 45 dc             	cmp    -0x24(%ebp),%eax
  800692:	74 26                	je     8006ba <_main+0x682>
		{ is_correct = 0; cprintf("Wrong free page file pages count: allocated page file size incorrect. Expected Difference = %d, Actual = %d\n", 0, (usedDiskPages - sys_pf_calculate_allocated_pages()));}
  800694:	c7 45 f0 00 00 00 00 	movl   $0x0,-0x10(%ebp)
  80069b:	e8 60 15 00 00       	call   801c00 <sys_pf_calculate_allocated_pages>
  8006a0:	8b 55 dc             	mov    -0x24(%ebp),%edx
  8006a3:	29 c2                	sub    %eax,%edx
  8006a5:	89 d0                	mov    %edx,%eax
  8006a7:	83 ec 04             	sub    $0x4,%esp
  8006aa:	50                   	push   %eax
  8006ab:	6a 00                	push   $0x0
  8006ad:	68 6c 38 80 00       	push   $0x80386c
  8006b2:	e8 b6 02 00 00       	call   80096d <cprintf>
  8006b7:	83 c4 10             	add    $0x10,%esp

		if ((WsSize - LIST_SIZE(&(myEnv->page_WS_list)))!=0)
  8006ba:	a1 20 50 80 00       	mov    0x805020,%eax
  8006bf:	8b 90 d8 00 00 00    	mov    0xd8(%eax),%edx
  8006c5:	8b 45 d8             	mov    -0x28(%ebp),%eax
  8006c8:	39 c2                	cmp    %eax,%edx
  8006ca:	74 17                	je     8006e3 <_main+0x6ab>
		{ is_correct = 0; cprintf("Wrong size for WS size: new page(s) was/were added to the working set while it/they should NOT be written");}
  8006cc:	c7 45 f0 00 00 00 00 	movl   $0x0,-0x10(%ebp)
  8006d3:	83 ec 0c             	sub    $0xc,%esp
  8006d6:	68 dc 38 80 00       	push   $0x8038dc
  8006db:	e8 8d 02 00 00       	call   80096d <cprintf>
  8006e0:	83 c4 10             	add    $0x10,%esp

		uint32 MentToFound2 [1] = {USER_HEAP_START + PAGE_SIZE};
  8006e3:	c7 45 a4 00 10 00 80 	movl   $0x80001000,-0x5c(%ebp)

		found = sys_check_WS_list(MentToFound2, 1, 0, 2);
  8006ea:	6a 02                	push   $0x2
  8006ec:	6a 00                	push   $0x0
  8006ee:	6a 01                	push   $0x1
  8006f0:	8d 45 a4             	lea    -0x5c(%ebp),%eax
  8006f3:	50                   	push   %eax
  8006f4:	e8 d9 19 00 00       	call   8020d2 <sys_check_WS_list>
  8006f9:	83 c4 10             	add    $0x10,%esp
  8006fc:	89 45 c8             	mov    %eax,-0x38(%ebp)
		if (found)
  8006ff:	83 7d c8 00          	cmpl   $0x0,-0x38(%ebp)
  800703:	74 17                	je     80071c <_main+0x6e4>
		{ is_correct = 0; cprintf("Unexpected page shouldn't be written into the working set but it has been written\n");}
  800705:	c7 45 f0 00 00 00 00 	movl   $0x0,-0x10(%ebp)
  80070c:	83 ec 0c             	sub    $0xc,%esp
  80070f:	68 cc 3c 80 00       	push   $0x803ccc
  800714:	e8 54 02 00 00       	call   80096d <cprintf>
  800719:	83 c4 10             	add    $0x10,%esp

		if (is_correct)
  80071c:	83 7d f0 00          	cmpl   $0x0,-0x10(%ebp)
  800720:	74 12                	je     800734 <_main+0x6fc>
			cprintf("STEP E PASSED: checking increment with +ve value works!\n\n\n");
  800722:	83 ec 0c             	sub    $0xc,%esp
  800725:	68 20 3d 80 00       	push   $0x803d20
  80072a:	e8 3e 02 00 00       	call   80096d <cprintf>
  80072f:	83 c4 10             	add    $0x10,%esp
  800732:	eb 10                	jmp    800744 <_main+0x70c>
		else
			cprintf("STEP E finished with problems\n");
  800734:	83 ec 0c             	sub    $0xc,%esp
  800737:	68 5c 3d 80 00       	push   $0x803d5c
  80073c:	e8 2c 02 00 00       	call   80096d <cprintf>
  800741:	83 c4 10             	add    $0x10,%esp
	}
	if (is_correct)
  800744:	83 7d f0 00          	cmpl   $0x0,-0x10(%ebp)
  800748:	74 04                	je     80074e <_main+0x716>
	{
		eval += 25;
  80074a:	83 45 f4 19          	addl   $0x19,-0xc(%ebp)
	}
	is_correct = 1;
  80074e:	c7 45 f0 01 00 00 00 	movl   $0x1,-0x10(%ebp)

	/*******************************************************************/
	/*******************************************************************/

	//cprintf("test user heap sbrk is finished. Evaluation = %d%\n", eval);
	cprintf("[AUTO_GR@DING_PARTIAL]%d\n", eval);
  800755:	83 ec 08             	sub    $0x8,%esp
  800758:	ff 75 f4             	pushl  -0xc(%ebp)
  80075b:	68 7b 3d 80 00       	push   $0x803d7b
  800760:	e8 08 02 00 00       	call   80096d <cprintf>
  800765:	83 c4 10             	add    $0x10,%esp

	return;
  800768:	90                   	nop
}
  800769:	c9                   	leave  
  80076a:	c3                   	ret    

0080076b <libmain>:
volatile struct Env *myEnv = NULL;
volatile char *binaryname = "(PROGRAM NAME UNKNOWN)";

void
libmain(int argc, char **argv)
{
  80076b:	55                   	push   %ebp
  80076c:	89 e5                	mov    %esp,%ebp
  80076e:	83 ec 18             	sub    $0x18,%esp
	int envIndex = sys_getenvindex();
  800771:	e8 ca 16 00 00       	call   801e40 <sys_getenvindex>
  800776:	89 45 f4             	mov    %eax,-0xc(%ebp)
	myEnv = &(envs[envIndex]);
  800779:	8b 55 f4             	mov    -0xc(%ebp),%edx
  80077c:	89 d0                	mov    %edx,%eax
  80077e:	01 c0                	add    %eax,%eax
  800780:	01 d0                	add    %edx,%eax
  800782:	c1 e0 06             	shl    $0x6,%eax
  800785:	29 d0                	sub    %edx,%eax
  800787:	c1 e0 03             	shl    $0x3,%eax
  80078a:	05 00 00 c0 ee       	add    $0xeec00000,%eax
  80078f:	a3 20 50 80 00       	mov    %eax,0x805020

	//SET THE PROGRAM NAME
	if (myEnv->prog_name[0] != '\0')
  800794:	a1 20 50 80 00       	mov    0x805020,%eax
  800799:	8a 40 68             	mov    0x68(%eax),%al
  80079c:	84 c0                	test   %al,%al
  80079e:	74 0d                	je     8007ad <libmain+0x42>
		binaryname = myEnv->prog_name;
  8007a0:	a1 20 50 80 00       	mov    0x805020,%eax
  8007a5:	83 c0 68             	add    $0x68,%eax
  8007a8:	a3 00 50 80 00       	mov    %eax,0x805000

	// set env to point at our env structure in envs[].
	// env = envs;

	// save the name of the program so that panic() can use it
	if (argc > 0)
  8007ad:	83 7d 08 00          	cmpl   $0x0,0x8(%ebp)
  8007b1:	7e 0a                	jle    8007bd <libmain+0x52>
		binaryname = argv[0];
  8007b3:	8b 45 0c             	mov    0xc(%ebp),%eax
  8007b6:	8b 00                	mov    (%eax),%eax
  8007b8:	a3 00 50 80 00       	mov    %eax,0x805000

	// call user main routine
	_main(argc, argv);
  8007bd:	83 ec 08             	sub    $0x8,%esp
  8007c0:	ff 75 0c             	pushl  0xc(%ebp)
  8007c3:	ff 75 08             	pushl  0x8(%ebp)
  8007c6:	e8 6d f8 ff ff       	call   800038 <_main>
  8007cb:	83 c4 10             	add    $0x10,%esp



	sys_disable_interrupt();
  8007ce:	e8 7a 14 00 00       	call   801c4d <sys_disable_interrupt>
	cprintf("**************************************\n");
  8007d3:	83 ec 0c             	sub    $0xc,%esp
  8007d6:	68 b0 3d 80 00       	push   $0x803db0
  8007db:	e8 8d 01 00 00       	call   80096d <cprintf>
  8007e0:	83 c4 10             	add    $0x10,%esp
	cprintf("Num of PAGE faults = %d, modif = %d\n", myEnv->pageFaultsCounter, myEnv->nModifiedPages);
  8007e3:	a1 20 50 80 00       	mov    0x805020,%eax
  8007e8:	8b 90 dc 05 00 00    	mov    0x5dc(%eax),%edx
  8007ee:	a1 20 50 80 00       	mov    0x805020,%eax
  8007f3:	8b 80 cc 05 00 00    	mov    0x5cc(%eax),%eax
  8007f9:	83 ec 04             	sub    $0x4,%esp
  8007fc:	52                   	push   %edx
  8007fd:	50                   	push   %eax
  8007fe:	68 d8 3d 80 00       	push   $0x803dd8
  800803:	e8 65 01 00 00       	call   80096d <cprintf>
  800808:	83 c4 10             	add    $0x10,%esp
	cprintf("# PAGE IN (from disk) = %d, # PAGE OUT (on disk) = %d, # NEW PAGE ADDED (on disk) = %d\n", myEnv->nPageIn, myEnv->nPageOut,myEnv->nNewPageAdded);
  80080b:	a1 20 50 80 00       	mov    0x805020,%eax
  800810:	8b 88 f0 05 00 00    	mov    0x5f0(%eax),%ecx
  800816:	a1 20 50 80 00       	mov    0x805020,%eax
  80081b:	8b 90 ec 05 00 00    	mov    0x5ec(%eax),%edx
  800821:	a1 20 50 80 00       	mov    0x805020,%eax
  800826:	8b 80 e8 05 00 00    	mov    0x5e8(%eax),%eax
  80082c:	51                   	push   %ecx
  80082d:	52                   	push   %edx
  80082e:	50                   	push   %eax
  80082f:	68 00 3e 80 00       	push   $0x803e00
  800834:	e8 34 01 00 00       	call   80096d <cprintf>
  800839:	83 c4 10             	add    $0x10,%esp
	//cprintf("Num of freeing scarce memory = %d, freeing full working set = %d\n", myEnv->freeingScarceMemCounter, myEnv->freeingFullWSCounter);
	cprintf("Num of clocks = %d\n", myEnv->nClocks);
  80083c:	a1 20 50 80 00       	mov    0x805020,%eax
  800841:	8b 80 f4 05 00 00    	mov    0x5f4(%eax),%eax
  800847:	83 ec 08             	sub    $0x8,%esp
  80084a:	50                   	push   %eax
  80084b:	68 58 3e 80 00       	push   $0x803e58
  800850:	e8 18 01 00 00       	call   80096d <cprintf>
  800855:	83 c4 10             	add    $0x10,%esp
	cprintf("**************************************\n");
  800858:	83 ec 0c             	sub    $0xc,%esp
  80085b:	68 b0 3d 80 00       	push   $0x803db0
  800860:	e8 08 01 00 00       	call   80096d <cprintf>
  800865:	83 c4 10             	add    $0x10,%esp
	sys_enable_interrupt();
  800868:	e8 fa 13 00 00       	call   801c67 <sys_enable_interrupt>

	// exit gracefully
	exit();
  80086d:	e8 19 00 00 00       	call   80088b <exit>
}
  800872:	90                   	nop
  800873:	c9                   	leave  
  800874:	c3                   	ret    

00800875 <destroy>:

#include <inc/lib.h>

void
destroy(void)
{
  800875:	55                   	push   %ebp
  800876:	89 e5                	mov    %esp,%ebp
  800878:	83 ec 08             	sub    $0x8,%esp
	sys_destroy_env(0);
  80087b:	83 ec 0c             	sub    $0xc,%esp
  80087e:	6a 00                	push   $0x0
  800880:	e8 87 15 00 00       	call   801e0c <sys_destroy_env>
  800885:	83 c4 10             	add    $0x10,%esp
}
  800888:	90                   	nop
  800889:	c9                   	leave  
  80088a:	c3                   	ret    

0080088b <exit>:

void
exit(void)
{
  80088b:	55                   	push   %ebp
  80088c:	89 e5                	mov    %esp,%ebp
  80088e:	83 ec 08             	sub    $0x8,%esp
	sys_exit_env();
  800891:	e8 dc 15 00 00       	call   801e72 <sys_exit_env>
}
  800896:	90                   	nop
  800897:	c9                   	leave  
  800898:	c3                   	ret    

00800899 <putch>:
};

//2017:
uint8 printProgName = 0;

static void putch(int ch, struct printbuf *b) {
  800899:	55                   	push   %ebp
  80089a:	89 e5                	mov    %esp,%ebp
  80089c:	83 ec 08             	sub    $0x8,%esp
	b->buf[b->idx++] = ch;
  80089f:	8b 45 0c             	mov    0xc(%ebp),%eax
  8008a2:	8b 00                	mov    (%eax),%eax
  8008a4:	8d 48 01             	lea    0x1(%eax),%ecx
  8008a7:	8b 55 0c             	mov    0xc(%ebp),%edx
  8008aa:	89 0a                	mov    %ecx,(%edx)
  8008ac:	8b 55 08             	mov    0x8(%ebp),%edx
  8008af:	88 d1                	mov    %dl,%cl
  8008b1:	8b 55 0c             	mov    0xc(%ebp),%edx
  8008b4:	88 4c 02 08          	mov    %cl,0x8(%edx,%eax,1)
	if (b->idx == 256 - 1) {
  8008b8:	8b 45 0c             	mov    0xc(%ebp),%eax
  8008bb:	8b 00                	mov    (%eax),%eax
  8008bd:	3d ff 00 00 00       	cmp    $0xff,%eax
  8008c2:	75 2c                	jne    8008f0 <putch+0x57>
		sys_cputs(b->buf, b->idx, printProgName);
  8008c4:	a0 24 50 80 00       	mov    0x805024,%al
  8008c9:	0f b6 c0             	movzbl %al,%eax
  8008cc:	8b 55 0c             	mov    0xc(%ebp),%edx
  8008cf:	8b 12                	mov    (%edx),%edx
  8008d1:	89 d1                	mov    %edx,%ecx
  8008d3:	8b 55 0c             	mov    0xc(%ebp),%edx
  8008d6:	83 c2 08             	add    $0x8,%edx
  8008d9:	83 ec 04             	sub    $0x4,%esp
  8008dc:	50                   	push   %eax
  8008dd:	51                   	push   %ecx
  8008de:	52                   	push   %edx
  8008df:	e8 10 12 00 00       	call   801af4 <sys_cputs>
  8008e4:	83 c4 10             	add    $0x10,%esp
		b->idx = 0;
  8008e7:	8b 45 0c             	mov    0xc(%ebp),%eax
  8008ea:	c7 00 00 00 00 00    	movl   $0x0,(%eax)
	}
	b->cnt++;
  8008f0:	8b 45 0c             	mov    0xc(%ebp),%eax
  8008f3:	8b 40 04             	mov    0x4(%eax),%eax
  8008f6:	8d 50 01             	lea    0x1(%eax),%edx
  8008f9:	8b 45 0c             	mov    0xc(%ebp),%eax
  8008fc:	89 50 04             	mov    %edx,0x4(%eax)
}
  8008ff:	90                   	nop
  800900:	c9                   	leave  
  800901:	c3                   	ret    

00800902 <vcprintf>:

int vcprintf(const char *fmt, va_list ap) {
  800902:	55                   	push   %ebp
  800903:	89 e5                	mov    %esp,%ebp
  800905:	81 ec 18 01 00 00    	sub    $0x118,%esp
	struct printbuf b;

	b.idx = 0;
  80090b:	c7 85 f0 fe ff ff 00 	movl   $0x0,-0x110(%ebp)
  800912:	00 00 00 
	b.cnt = 0;
  800915:	c7 85 f4 fe ff ff 00 	movl   $0x0,-0x10c(%ebp)
  80091c:	00 00 00 
	vprintfmt((void*) putch, &b, fmt, ap);
  80091f:	ff 75 0c             	pushl  0xc(%ebp)
  800922:	ff 75 08             	pushl  0x8(%ebp)
  800925:	8d 85 f0 fe ff ff    	lea    -0x110(%ebp),%eax
  80092b:	50                   	push   %eax
  80092c:	68 99 08 80 00       	push   $0x800899
  800931:	e8 11 02 00 00       	call   800b47 <vprintfmt>
  800936:	83 c4 10             	add    $0x10,%esp
	sys_cputs(b.buf, b.idx, printProgName);
  800939:	a0 24 50 80 00       	mov    0x805024,%al
  80093e:	0f b6 c0             	movzbl %al,%eax
  800941:	8b 95 f0 fe ff ff    	mov    -0x110(%ebp),%edx
  800947:	83 ec 04             	sub    $0x4,%esp
  80094a:	50                   	push   %eax
  80094b:	52                   	push   %edx
  80094c:	8d 85 f0 fe ff ff    	lea    -0x110(%ebp),%eax
  800952:	83 c0 08             	add    $0x8,%eax
  800955:	50                   	push   %eax
  800956:	e8 99 11 00 00       	call   801af4 <sys_cputs>
  80095b:	83 c4 10             	add    $0x10,%esp

	printProgName = 0;
  80095e:	c6 05 24 50 80 00 00 	movb   $0x0,0x805024
	return b.cnt;
  800965:	8b 85 f4 fe ff ff    	mov    -0x10c(%ebp),%eax
}
  80096b:	c9                   	leave  
  80096c:	c3                   	ret    

0080096d <cprintf>:

int cprintf(const char *fmt, ...) {
  80096d:	55                   	push   %ebp
  80096e:	89 e5                	mov    %esp,%ebp
  800970:	83 ec 18             	sub    $0x18,%esp
	va_list ap;
	int cnt;
	printProgName = 1 ;
  800973:	c6 05 24 50 80 00 01 	movb   $0x1,0x805024
	va_start(ap, fmt);
  80097a:	8d 45 0c             	lea    0xc(%ebp),%eax
  80097d:	89 45 f4             	mov    %eax,-0xc(%ebp)
	cnt = vcprintf(fmt, ap);
  800980:	8b 45 08             	mov    0x8(%ebp),%eax
  800983:	83 ec 08             	sub    $0x8,%esp
  800986:	ff 75 f4             	pushl  -0xc(%ebp)
  800989:	50                   	push   %eax
  80098a:	e8 73 ff ff ff       	call   800902 <vcprintf>
  80098f:	83 c4 10             	add    $0x10,%esp
  800992:	89 45 f0             	mov    %eax,-0x10(%ebp)
	va_end(ap);

	return cnt;
  800995:	8b 45 f0             	mov    -0x10(%ebp),%eax
}
  800998:	c9                   	leave  
  800999:	c3                   	ret    

0080099a <atomic_cprintf>:

int atomic_cprintf(const char *fmt, ...) {
  80099a:	55                   	push   %ebp
  80099b:	89 e5                	mov    %esp,%ebp
  80099d:	83 ec 18             	sub    $0x18,%esp
	sys_disable_interrupt();
  8009a0:	e8 a8 12 00 00       	call   801c4d <sys_disable_interrupt>
	va_list ap;
	int cnt;

	va_start(ap, fmt);
  8009a5:	8d 45 0c             	lea    0xc(%ebp),%eax
  8009a8:	89 45 f4             	mov    %eax,-0xc(%ebp)
	cnt = vcprintf(fmt, ap);
  8009ab:	8b 45 08             	mov    0x8(%ebp),%eax
  8009ae:	83 ec 08             	sub    $0x8,%esp
  8009b1:	ff 75 f4             	pushl  -0xc(%ebp)
  8009b4:	50                   	push   %eax
  8009b5:	e8 48 ff ff ff       	call   800902 <vcprintf>
  8009ba:	83 c4 10             	add    $0x10,%esp
  8009bd:	89 45 f0             	mov    %eax,-0x10(%ebp)
	va_end(ap);

	sys_enable_interrupt();
  8009c0:	e8 a2 12 00 00       	call   801c67 <sys_enable_interrupt>
	return cnt;
  8009c5:	8b 45 f0             	mov    -0x10(%ebp),%eax
}
  8009c8:	c9                   	leave  
  8009c9:	c3                   	ret    

008009ca <printnum>:
 * using specified putch function and associated pointer putdat.
 */
static void
printnum(void (*putch)(int, void*), void *putdat,
	 unsigned long long num, unsigned base, int width, int padc)
{
  8009ca:	55                   	push   %ebp
  8009cb:	89 e5                	mov    %esp,%ebp
  8009cd:	53                   	push   %ebx
  8009ce:	83 ec 14             	sub    $0x14,%esp
  8009d1:	8b 45 10             	mov    0x10(%ebp),%eax
  8009d4:	89 45 f0             	mov    %eax,-0x10(%ebp)
  8009d7:	8b 45 14             	mov    0x14(%ebp),%eax
  8009da:	89 45 f4             	mov    %eax,-0xc(%ebp)
	// first recursively print all preceding (more significant) digits
	if (num >= base) {
  8009dd:	8b 45 18             	mov    0x18(%ebp),%eax
  8009e0:	ba 00 00 00 00       	mov    $0x0,%edx
  8009e5:	3b 55 f4             	cmp    -0xc(%ebp),%edx
  8009e8:	77 55                	ja     800a3f <printnum+0x75>
  8009ea:	3b 55 f4             	cmp    -0xc(%ebp),%edx
  8009ed:	72 05                	jb     8009f4 <printnum+0x2a>
  8009ef:	3b 45 f0             	cmp    -0x10(%ebp),%eax
  8009f2:	77 4b                	ja     800a3f <printnum+0x75>
		printnum(putch, putdat, num / base, base, width - 1, padc);
  8009f4:	8b 45 1c             	mov    0x1c(%ebp),%eax
  8009f7:	8d 58 ff             	lea    -0x1(%eax),%ebx
  8009fa:	8b 45 18             	mov    0x18(%ebp),%eax
  8009fd:	ba 00 00 00 00       	mov    $0x0,%edx
  800a02:	52                   	push   %edx
  800a03:	50                   	push   %eax
  800a04:	ff 75 f4             	pushl  -0xc(%ebp)
  800a07:	ff 75 f0             	pushl  -0x10(%ebp)
  800a0a:	e8 f5 2a 00 00       	call   803504 <__udivdi3>
  800a0f:	83 c4 10             	add    $0x10,%esp
  800a12:	83 ec 04             	sub    $0x4,%esp
  800a15:	ff 75 20             	pushl  0x20(%ebp)
  800a18:	53                   	push   %ebx
  800a19:	ff 75 18             	pushl  0x18(%ebp)
  800a1c:	52                   	push   %edx
  800a1d:	50                   	push   %eax
  800a1e:	ff 75 0c             	pushl  0xc(%ebp)
  800a21:	ff 75 08             	pushl  0x8(%ebp)
  800a24:	e8 a1 ff ff ff       	call   8009ca <printnum>
  800a29:	83 c4 20             	add    $0x20,%esp
  800a2c:	eb 1a                	jmp    800a48 <printnum+0x7e>
	} else {
		// print any needed pad characters before first digit
		while (--width > 0)
			putch(padc, putdat);
  800a2e:	83 ec 08             	sub    $0x8,%esp
  800a31:	ff 75 0c             	pushl  0xc(%ebp)
  800a34:	ff 75 20             	pushl  0x20(%ebp)
  800a37:	8b 45 08             	mov    0x8(%ebp),%eax
  800a3a:	ff d0                	call   *%eax
  800a3c:	83 c4 10             	add    $0x10,%esp
	// first recursively print all preceding (more significant) digits
	if (num >= base) {
		printnum(putch, putdat, num / base, base, width - 1, padc);
	} else {
		// print any needed pad characters before first digit
		while (--width > 0)
  800a3f:	ff 4d 1c             	decl   0x1c(%ebp)
  800a42:	83 7d 1c 00          	cmpl   $0x0,0x1c(%ebp)
  800a46:	7f e6                	jg     800a2e <printnum+0x64>
			putch(padc, putdat);
	}

	// then print this (the least significant) digit
	putch("0123456789abcdef"[num % base], putdat);
  800a48:	8b 4d 18             	mov    0x18(%ebp),%ecx
  800a4b:	bb 00 00 00 00       	mov    $0x0,%ebx
  800a50:	8b 45 f0             	mov    -0x10(%ebp),%eax
  800a53:	8b 55 f4             	mov    -0xc(%ebp),%edx
  800a56:	53                   	push   %ebx
  800a57:	51                   	push   %ecx
  800a58:	52                   	push   %edx
  800a59:	50                   	push   %eax
  800a5a:	e8 b5 2b 00 00       	call   803614 <__umoddi3>
  800a5f:	83 c4 10             	add    $0x10,%esp
  800a62:	05 94 40 80 00       	add    $0x804094,%eax
  800a67:	8a 00                	mov    (%eax),%al
  800a69:	0f be c0             	movsbl %al,%eax
  800a6c:	83 ec 08             	sub    $0x8,%esp
  800a6f:	ff 75 0c             	pushl  0xc(%ebp)
  800a72:	50                   	push   %eax
  800a73:	8b 45 08             	mov    0x8(%ebp),%eax
  800a76:	ff d0                	call   *%eax
  800a78:	83 c4 10             	add    $0x10,%esp
}
  800a7b:	90                   	nop
  800a7c:	8b 5d fc             	mov    -0x4(%ebp),%ebx
  800a7f:	c9                   	leave  
  800a80:	c3                   	ret    

00800a81 <getuint>:

// Get an unsigned int of various possible sizes from a varargs list,
// depending on the lflag parameter.
static unsigned long long
getuint(va_list *ap, int lflag)
{
  800a81:	55                   	push   %ebp
  800a82:	89 e5                	mov    %esp,%ebp
	if (lflag >= 2)
  800a84:	83 7d 0c 01          	cmpl   $0x1,0xc(%ebp)
  800a88:	7e 1c                	jle    800aa6 <getuint+0x25>
		return va_arg(*ap, unsigned long long);
  800a8a:	8b 45 08             	mov    0x8(%ebp),%eax
  800a8d:	8b 00                	mov    (%eax),%eax
  800a8f:	8d 50 08             	lea    0x8(%eax),%edx
  800a92:	8b 45 08             	mov    0x8(%ebp),%eax
  800a95:	89 10                	mov    %edx,(%eax)
  800a97:	8b 45 08             	mov    0x8(%ebp),%eax
  800a9a:	8b 00                	mov    (%eax),%eax
  800a9c:	83 e8 08             	sub    $0x8,%eax
  800a9f:	8b 50 04             	mov    0x4(%eax),%edx
  800aa2:	8b 00                	mov    (%eax),%eax
  800aa4:	eb 40                	jmp    800ae6 <getuint+0x65>
	else if (lflag)
  800aa6:	83 7d 0c 00          	cmpl   $0x0,0xc(%ebp)
  800aaa:	74 1e                	je     800aca <getuint+0x49>
		return va_arg(*ap, unsigned long);
  800aac:	8b 45 08             	mov    0x8(%ebp),%eax
  800aaf:	8b 00                	mov    (%eax),%eax
  800ab1:	8d 50 04             	lea    0x4(%eax),%edx
  800ab4:	8b 45 08             	mov    0x8(%ebp),%eax
  800ab7:	89 10                	mov    %edx,(%eax)
  800ab9:	8b 45 08             	mov    0x8(%ebp),%eax
  800abc:	8b 00                	mov    (%eax),%eax
  800abe:	83 e8 04             	sub    $0x4,%eax
  800ac1:	8b 00                	mov    (%eax),%eax
  800ac3:	ba 00 00 00 00       	mov    $0x0,%edx
  800ac8:	eb 1c                	jmp    800ae6 <getuint+0x65>
	else
		return va_arg(*ap, unsigned int);
  800aca:	8b 45 08             	mov    0x8(%ebp),%eax
  800acd:	8b 00                	mov    (%eax),%eax
  800acf:	8d 50 04             	lea    0x4(%eax),%edx
  800ad2:	8b 45 08             	mov    0x8(%ebp),%eax
  800ad5:	89 10                	mov    %edx,(%eax)
  800ad7:	8b 45 08             	mov    0x8(%ebp),%eax
  800ada:	8b 00                	mov    (%eax),%eax
  800adc:	83 e8 04             	sub    $0x4,%eax
  800adf:	8b 00                	mov    (%eax),%eax
  800ae1:	ba 00 00 00 00       	mov    $0x0,%edx
}
  800ae6:	5d                   	pop    %ebp
  800ae7:	c3                   	ret    

00800ae8 <getint>:

// Same as getuint but signed - can't use getuint
// because of sign extension
static long long
getint(va_list *ap, int lflag)
{
  800ae8:	55                   	push   %ebp
  800ae9:	89 e5                	mov    %esp,%ebp
	if (lflag >= 2)
  800aeb:	83 7d 0c 01          	cmpl   $0x1,0xc(%ebp)
  800aef:	7e 1c                	jle    800b0d <getint+0x25>
		return va_arg(*ap, long long);
  800af1:	8b 45 08             	mov    0x8(%ebp),%eax
  800af4:	8b 00                	mov    (%eax),%eax
  800af6:	8d 50 08             	lea    0x8(%eax),%edx
  800af9:	8b 45 08             	mov    0x8(%ebp),%eax
  800afc:	89 10                	mov    %edx,(%eax)
  800afe:	8b 45 08             	mov    0x8(%ebp),%eax
  800b01:	8b 00                	mov    (%eax),%eax
  800b03:	83 e8 08             	sub    $0x8,%eax
  800b06:	8b 50 04             	mov    0x4(%eax),%edx
  800b09:	8b 00                	mov    (%eax),%eax
  800b0b:	eb 38                	jmp    800b45 <getint+0x5d>
	else if (lflag)
  800b0d:	83 7d 0c 00          	cmpl   $0x0,0xc(%ebp)
  800b11:	74 1a                	je     800b2d <getint+0x45>
		return va_arg(*ap, long);
  800b13:	8b 45 08             	mov    0x8(%ebp),%eax
  800b16:	8b 00                	mov    (%eax),%eax
  800b18:	8d 50 04             	lea    0x4(%eax),%edx
  800b1b:	8b 45 08             	mov    0x8(%ebp),%eax
  800b1e:	89 10                	mov    %edx,(%eax)
  800b20:	8b 45 08             	mov    0x8(%ebp),%eax
  800b23:	8b 00                	mov    (%eax),%eax
  800b25:	83 e8 04             	sub    $0x4,%eax
  800b28:	8b 00                	mov    (%eax),%eax
  800b2a:	99                   	cltd   
  800b2b:	eb 18                	jmp    800b45 <getint+0x5d>
	else
		return va_arg(*ap, int);
  800b2d:	8b 45 08             	mov    0x8(%ebp),%eax
  800b30:	8b 00                	mov    (%eax),%eax
  800b32:	8d 50 04             	lea    0x4(%eax),%edx
  800b35:	8b 45 08             	mov    0x8(%ebp),%eax
  800b38:	89 10                	mov    %edx,(%eax)
  800b3a:	8b 45 08             	mov    0x8(%ebp),%eax
  800b3d:	8b 00                	mov    (%eax),%eax
  800b3f:	83 e8 04             	sub    $0x4,%eax
  800b42:	8b 00                	mov    (%eax),%eax
  800b44:	99                   	cltd   
}
  800b45:	5d                   	pop    %ebp
  800b46:	c3                   	ret    

00800b47 <vprintfmt>:
// Main function to format and print a string.
void printfmt(void (*putch)(int, void*), void *putdat, const char *fmt, ...);

void
vprintfmt(void (*putch)(int, void*), void *putdat, const char *fmt, va_list ap)
{
  800b47:	55                   	push   %ebp
  800b48:	89 e5                	mov    %esp,%ebp
  800b4a:	56                   	push   %esi
  800b4b:	53                   	push   %ebx
  800b4c:	83 ec 20             	sub    $0x20,%esp
	unsigned long long num;
	int base, lflag, width, precision, altflag;
	char padc;

	while (1) {
		while ((ch = *(unsigned char *) fmt++) != '%') {
  800b4f:	eb 17                	jmp    800b68 <vprintfmt+0x21>
			if (ch == '\0')
  800b51:	85 db                	test   %ebx,%ebx
  800b53:	0f 84 af 03 00 00    	je     800f08 <vprintfmt+0x3c1>
				return;
			putch(ch, putdat);
  800b59:	83 ec 08             	sub    $0x8,%esp
  800b5c:	ff 75 0c             	pushl  0xc(%ebp)
  800b5f:	53                   	push   %ebx
  800b60:	8b 45 08             	mov    0x8(%ebp),%eax
  800b63:	ff d0                	call   *%eax
  800b65:	83 c4 10             	add    $0x10,%esp
	unsigned long long num;
	int base, lflag, width, precision, altflag;
	char padc;

	while (1) {
		while ((ch = *(unsigned char *) fmt++) != '%') {
  800b68:	8b 45 10             	mov    0x10(%ebp),%eax
  800b6b:	8d 50 01             	lea    0x1(%eax),%edx
  800b6e:	89 55 10             	mov    %edx,0x10(%ebp)
  800b71:	8a 00                	mov    (%eax),%al
  800b73:	0f b6 d8             	movzbl %al,%ebx
  800b76:	83 fb 25             	cmp    $0x25,%ebx
  800b79:	75 d6                	jne    800b51 <vprintfmt+0xa>
				return;
			putch(ch, putdat);
		}

		// Process a %-escape sequence
		padc = ' ';
  800b7b:	c6 45 db 20          	movb   $0x20,-0x25(%ebp)
		width = -1;
  800b7f:	c7 45 e4 ff ff ff ff 	movl   $0xffffffff,-0x1c(%ebp)
		precision = -1;
  800b86:	c7 45 e0 ff ff ff ff 	movl   $0xffffffff,-0x20(%ebp)
		lflag = 0;
  800b8d:	c7 45 e8 00 00 00 00 	movl   $0x0,-0x18(%ebp)
		altflag = 0;
  800b94:	c7 45 dc 00 00 00 00 	movl   $0x0,-0x24(%ebp)
	reswitch:
		switch (ch = *(unsigned char *) fmt++) {
  800b9b:	8b 45 10             	mov    0x10(%ebp),%eax
  800b9e:	8d 50 01             	lea    0x1(%eax),%edx
  800ba1:	89 55 10             	mov    %edx,0x10(%ebp)
  800ba4:	8a 00                	mov    (%eax),%al
  800ba6:	0f b6 d8             	movzbl %al,%ebx
  800ba9:	8d 43 dd             	lea    -0x23(%ebx),%eax
  800bac:	83 f8 55             	cmp    $0x55,%eax
  800baf:	0f 87 2b 03 00 00    	ja     800ee0 <vprintfmt+0x399>
  800bb5:	8b 04 85 b8 40 80 00 	mov    0x8040b8(,%eax,4),%eax
  800bbc:	ff e0                	jmp    *%eax

		// flag to pad on the right
		case '-':
			padc = '-';
  800bbe:	c6 45 db 2d          	movb   $0x2d,-0x25(%ebp)
			goto reswitch;
  800bc2:	eb d7                	jmp    800b9b <vprintfmt+0x54>

		// flag to pad with 0's instead of spaces
		case '0':
			padc = '0';
  800bc4:	c6 45 db 30          	movb   $0x30,-0x25(%ebp)
			goto reswitch;
  800bc8:	eb d1                	jmp    800b9b <vprintfmt+0x54>
		case '5':
		case '6':
		case '7':
		case '8':
		case '9':
			for (precision = 0; ; ++fmt) {
  800bca:	c7 45 e0 00 00 00 00 	movl   $0x0,-0x20(%ebp)
				precision = precision * 10 + ch - '0';
  800bd1:	8b 55 e0             	mov    -0x20(%ebp),%edx
  800bd4:	89 d0                	mov    %edx,%eax
  800bd6:	c1 e0 02             	shl    $0x2,%eax
  800bd9:	01 d0                	add    %edx,%eax
  800bdb:	01 c0                	add    %eax,%eax
  800bdd:	01 d8                	add    %ebx,%eax
  800bdf:	83 e8 30             	sub    $0x30,%eax
  800be2:	89 45 e0             	mov    %eax,-0x20(%ebp)
				ch = *fmt;
  800be5:	8b 45 10             	mov    0x10(%ebp),%eax
  800be8:	8a 00                	mov    (%eax),%al
  800bea:	0f be d8             	movsbl %al,%ebx
				if (ch < '0' || ch > '9')
  800bed:	83 fb 2f             	cmp    $0x2f,%ebx
  800bf0:	7e 3e                	jle    800c30 <vprintfmt+0xe9>
  800bf2:	83 fb 39             	cmp    $0x39,%ebx
  800bf5:	7f 39                	jg     800c30 <vprintfmt+0xe9>
		case '5':
		case '6':
		case '7':
		case '8':
		case '9':
			for (precision = 0; ; ++fmt) {
  800bf7:	ff 45 10             	incl   0x10(%ebp)
				precision = precision * 10 + ch - '0';
				ch = *fmt;
				if (ch < '0' || ch > '9')
					break;
			}
  800bfa:	eb d5                	jmp    800bd1 <vprintfmt+0x8a>
			goto process_precision;

		case '*':
			precision = va_arg(ap, int);
  800bfc:	8b 45 14             	mov    0x14(%ebp),%eax
  800bff:	83 c0 04             	add    $0x4,%eax
  800c02:	89 45 14             	mov    %eax,0x14(%ebp)
  800c05:	8b 45 14             	mov    0x14(%ebp),%eax
  800c08:	83 e8 04             	sub    $0x4,%eax
  800c0b:	8b 00                	mov    (%eax),%eax
  800c0d:	89 45 e0             	mov    %eax,-0x20(%ebp)
			goto process_precision;
  800c10:	eb 1f                	jmp    800c31 <vprintfmt+0xea>

		case '.':
			if (width < 0)
  800c12:	83 7d e4 00          	cmpl   $0x0,-0x1c(%ebp)
  800c16:	79 83                	jns    800b9b <vprintfmt+0x54>
				width = 0;
  800c18:	c7 45 e4 00 00 00 00 	movl   $0x0,-0x1c(%ebp)
			goto reswitch;
  800c1f:	e9 77 ff ff ff       	jmp    800b9b <vprintfmt+0x54>

		case '#':
			altflag = 1;
  800c24:	c7 45 dc 01 00 00 00 	movl   $0x1,-0x24(%ebp)
			goto reswitch;
  800c2b:	e9 6b ff ff ff       	jmp    800b9b <vprintfmt+0x54>
				precision = precision * 10 + ch - '0';
				ch = *fmt;
				if (ch < '0' || ch > '9')
					break;
			}
			goto process_precision;
  800c30:	90                   	nop
		case '#':
			altflag = 1;
			goto reswitch;

		process_precision:
			if (width < 0)
  800c31:	83 7d e4 00          	cmpl   $0x0,-0x1c(%ebp)
  800c35:	0f 89 60 ff ff ff    	jns    800b9b <vprintfmt+0x54>
				width = precision, precision = -1;
  800c3b:	8b 45 e0             	mov    -0x20(%ebp),%eax
  800c3e:	89 45 e4             	mov    %eax,-0x1c(%ebp)
  800c41:	c7 45 e0 ff ff ff ff 	movl   $0xffffffff,-0x20(%ebp)
			goto reswitch;
  800c48:	e9 4e ff ff ff       	jmp    800b9b <vprintfmt+0x54>

		// long flag (doubled for long long)
		case 'l':
			lflag++;
  800c4d:	ff 45 e8             	incl   -0x18(%ebp)
			goto reswitch;
  800c50:	e9 46 ff ff ff       	jmp    800b9b <vprintfmt+0x54>

		// character
		case 'c':
			putch(va_arg(ap, int), putdat);
  800c55:	8b 45 14             	mov    0x14(%ebp),%eax
  800c58:	83 c0 04             	add    $0x4,%eax
  800c5b:	89 45 14             	mov    %eax,0x14(%ebp)
  800c5e:	8b 45 14             	mov    0x14(%ebp),%eax
  800c61:	83 e8 04             	sub    $0x4,%eax
  800c64:	8b 00                	mov    (%eax),%eax
  800c66:	83 ec 08             	sub    $0x8,%esp
  800c69:	ff 75 0c             	pushl  0xc(%ebp)
  800c6c:	50                   	push   %eax
  800c6d:	8b 45 08             	mov    0x8(%ebp),%eax
  800c70:	ff d0                	call   *%eax
  800c72:	83 c4 10             	add    $0x10,%esp
			break;
  800c75:	e9 89 02 00 00       	jmp    800f03 <vprintfmt+0x3bc>

		// error message
		case 'e':
			err = va_arg(ap, int);
  800c7a:	8b 45 14             	mov    0x14(%ebp),%eax
  800c7d:	83 c0 04             	add    $0x4,%eax
  800c80:	89 45 14             	mov    %eax,0x14(%ebp)
  800c83:	8b 45 14             	mov    0x14(%ebp),%eax
  800c86:	83 e8 04             	sub    $0x4,%eax
  800c89:	8b 18                	mov    (%eax),%ebx
			if (err < 0)
  800c8b:	85 db                	test   %ebx,%ebx
  800c8d:	79 02                	jns    800c91 <vprintfmt+0x14a>
				err = -err;
  800c8f:	f7 db                	neg    %ebx
			if (err > MAXERROR || (p = error_string[err]) == NULL)
  800c91:	83 fb 64             	cmp    $0x64,%ebx
  800c94:	7f 0b                	jg     800ca1 <vprintfmt+0x15a>
  800c96:	8b 34 9d 00 3f 80 00 	mov    0x803f00(,%ebx,4),%esi
  800c9d:	85 f6                	test   %esi,%esi
  800c9f:	75 19                	jne    800cba <vprintfmt+0x173>
				printfmt(putch, putdat, "error %d", err);
  800ca1:	53                   	push   %ebx
  800ca2:	68 a5 40 80 00       	push   $0x8040a5
  800ca7:	ff 75 0c             	pushl  0xc(%ebp)
  800caa:	ff 75 08             	pushl  0x8(%ebp)
  800cad:	e8 5e 02 00 00       	call   800f10 <printfmt>
  800cb2:	83 c4 10             	add    $0x10,%esp
			else
				printfmt(putch, putdat, "%s", p);
			break;
  800cb5:	e9 49 02 00 00       	jmp    800f03 <vprintfmt+0x3bc>
			if (err < 0)
				err = -err;
			if (err > MAXERROR || (p = error_string[err]) == NULL)
				printfmt(putch, putdat, "error %d", err);
			else
				printfmt(putch, putdat, "%s", p);
  800cba:	56                   	push   %esi
  800cbb:	68 ae 40 80 00       	push   $0x8040ae
  800cc0:	ff 75 0c             	pushl  0xc(%ebp)
  800cc3:	ff 75 08             	pushl  0x8(%ebp)
  800cc6:	e8 45 02 00 00       	call   800f10 <printfmt>
  800ccb:	83 c4 10             	add    $0x10,%esp
			break;
  800cce:	e9 30 02 00 00       	jmp    800f03 <vprintfmt+0x3bc>

		// string
		case 's':
			if ((p = va_arg(ap, char *)) == NULL)
  800cd3:	8b 45 14             	mov    0x14(%ebp),%eax
  800cd6:	83 c0 04             	add    $0x4,%eax
  800cd9:	89 45 14             	mov    %eax,0x14(%ebp)
  800cdc:	8b 45 14             	mov    0x14(%ebp),%eax
  800cdf:	83 e8 04             	sub    $0x4,%eax
  800ce2:	8b 30                	mov    (%eax),%esi
  800ce4:	85 f6                	test   %esi,%esi
  800ce6:	75 05                	jne    800ced <vprintfmt+0x1a6>
				p = "(null)";
  800ce8:	be b1 40 80 00       	mov    $0x8040b1,%esi
			if (width > 0 && padc != '-')
  800ced:	83 7d e4 00          	cmpl   $0x0,-0x1c(%ebp)
  800cf1:	7e 6d                	jle    800d60 <vprintfmt+0x219>
  800cf3:	80 7d db 2d          	cmpb   $0x2d,-0x25(%ebp)
  800cf7:	74 67                	je     800d60 <vprintfmt+0x219>
				for (width -= strnlen(p, precision); width > 0; width--)
  800cf9:	8b 45 e0             	mov    -0x20(%ebp),%eax
  800cfc:	83 ec 08             	sub    $0x8,%esp
  800cff:	50                   	push   %eax
  800d00:	56                   	push   %esi
  800d01:	e8 0c 03 00 00       	call   801012 <strnlen>
  800d06:	83 c4 10             	add    $0x10,%esp
  800d09:	29 45 e4             	sub    %eax,-0x1c(%ebp)
  800d0c:	eb 16                	jmp    800d24 <vprintfmt+0x1dd>
					putch(padc, putdat);
  800d0e:	0f be 45 db          	movsbl -0x25(%ebp),%eax
  800d12:	83 ec 08             	sub    $0x8,%esp
  800d15:	ff 75 0c             	pushl  0xc(%ebp)
  800d18:	50                   	push   %eax
  800d19:	8b 45 08             	mov    0x8(%ebp),%eax
  800d1c:	ff d0                	call   *%eax
  800d1e:	83 c4 10             	add    $0x10,%esp
		// string
		case 's':
			if ((p = va_arg(ap, char *)) == NULL)
				p = "(null)";
			if (width > 0 && padc != '-')
				for (width -= strnlen(p, precision); width > 0; width--)
  800d21:	ff 4d e4             	decl   -0x1c(%ebp)
  800d24:	83 7d e4 00          	cmpl   $0x0,-0x1c(%ebp)
  800d28:	7f e4                	jg     800d0e <vprintfmt+0x1c7>
					putch(padc, putdat);
			for (; (ch = *p++) != '\0' && (precision < 0 || --precision >= 0); width--)
  800d2a:	eb 34                	jmp    800d60 <vprintfmt+0x219>
				if (altflag && (ch < ' ' || ch > '~'))
  800d2c:	83 7d dc 00          	cmpl   $0x0,-0x24(%ebp)
  800d30:	74 1c                	je     800d4e <vprintfmt+0x207>
  800d32:	83 fb 1f             	cmp    $0x1f,%ebx
  800d35:	7e 05                	jle    800d3c <vprintfmt+0x1f5>
  800d37:	83 fb 7e             	cmp    $0x7e,%ebx
  800d3a:	7e 12                	jle    800d4e <vprintfmt+0x207>
					putch('?', putdat);
  800d3c:	83 ec 08             	sub    $0x8,%esp
  800d3f:	ff 75 0c             	pushl  0xc(%ebp)
  800d42:	6a 3f                	push   $0x3f
  800d44:	8b 45 08             	mov    0x8(%ebp),%eax
  800d47:	ff d0                	call   *%eax
  800d49:	83 c4 10             	add    $0x10,%esp
  800d4c:	eb 0f                	jmp    800d5d <vprintfmt+0x216>
				else
					putch(ch, putdat);
  800d4e:	83 ec 08             	sub    $0x8,%esp
  800d51:	ff 75 0c             	pushl  0xc(%ebp)
  800d54:	53                   	push   %ebx
  800d55:	8b 45 08             	mov    0x8(%ebp),%eax
  800d58:	ff d0                	call   *%eax
  800d5a:	83 c4 10             	add    $0x10,%esp
			if ((p = va_arg(ap, char *)) == NULL)
				p = "(null)";
			if (width > 0 && padc != '-')
				for (width -= strnlen(p, precision); width > 0; width--)
					putch(padc, putdat);
			for (; (ch = *p++) != '\0' && (precision < 0 || --precision >= 0); width--)
  800d5d:	ff 4d e4             	decl   -0x1c(%ebp)
  800d60:	89 f0                	mov    %esi,%eax
  800d62:	8d 70 01             	lea    0x1(%eax),%esi
  800d65:	8a 00                	mov    (%eax),%al
  800d67:	0f be d8             	movsbl %al,%ebx
  800d6a:	85 db                	test   %ebx,%ebx
  800d6c:	74 24                	je     800d92 <vprintfmt+0x24b>
  800d6e:	83 7d e0 00          	cmpl   $0x0,-0x20(%ebp)
  800d72:	78 b8                	js     800d2c <vprintfmt+0x1e5>
  800d74:	ff 4d e0             	decl   -0x20(%ebp)
  800d77:	83 7d e0 00          	cmpl   $0x0,-0x20(%ebp)
  800d7b:	79 af                	jns    800d2c <vprintfmt+0x1e5>
				if (altflag && (ch < ' ' || ch > '~'))
					putch('?', putdat);
				else
					putch(ch, putdat);
			for (; width > 0; width--)
  800d7d:	eb 13                	jmp    800d92 <vprintfmt+0x24b>
				putch(' ', putdat);
  800d7f:	83 ec 08             	sub    $0x8,%esp
  800d82:	ff 75 0c             	pushl  0xc(%ebp)
  800d85:	6a 20                	push   $0x20
  800d87:	8b 45 08             	mov    0x8(%ebp),%eax
  800d8a:	ff d0                	call   *%eax
  800d8c:	83 c4 10             	add    $0x10,%esp
			for (; (ch = *p++) != '\0' && (precision < 0 || --precision >= 0); width--)
				if (altflag && (ch < ' ' || ch > '~'))
					putch('?', putdat);
				else
					putch(ch, putdat);
			for (; width > 0; width--)
  800d8f:	ff 4d e4             	decl   -0x1c(%ebp)
  800d92:	83 7d e4 00          	cmpl   $0x0,-0x1c(%ebp)
  800d96:	7f e7                	jg     800d7f <vprintfmt+0x238>
				putch(' ', putdat);
			break;
  800d98:	e9 66 01 00 00       	jmp    800f03 <vprintfmt+0x3bc>

		// (signed) decimal
		case 'd':
			num = getint(&ap, lflag);
  800d9d:	83 ec 08             	sub    $0x8,%esp
  800da0:	ff 75 e8             	pushl  -0x18(%ebp)
  800da3:	8d 45 14             	lea    0x14(%ebp),%eax
  800da6:	50                   	push   %eax
  800da7:	e8 3c fd ff ff       	call   800ae8 <getint>
  800dac:	83 c4 10             	add    $0x10,%esp
  800daf:	89 45 f0             	mov    %eax,-0x10(%ebp)
  800db2:	89 55 f4             	mov    %edx,-0xc(%ebp)
			if ((long long) num < 0) {
  800db5:	8b 45 f0             	mov    -0x10(%ebp),%eax
  800db8:	8b 55 f4             	mov    -0xc(%ebp),%edx
  800dbb:	85 d2                	test   %edx,%edx
  800dbd:	79 23                	jns    800de2 <vprintfmt+0x29b>
				putch('-', putdat);
  800dbf:	83 ec 08             	sub    $0x8,%esp
  800dc2:	ff 75 0c             	pushl  0xc(%ebp)
  800dc5:	6a 2d                	push   $0x2d
  800dc7:	8b 45 08             	mov    0x8(%ebp),%eax
  800dca:	ff d0                	call   *%eax
  800dcc:	83 c4 10             	add    $0x10,%esp
				num = -(long long) num;
  800dcf:	8b 45 f0             	mov    -0x10(%ebp),%eax
  800dd2:	8b 55 f4             	mov    -0xc(%ebp),%edx
  800dd5:	f7 d8                	neg    %eax
  800dd7:	83 d2 00             	adc    $0x0,%edx
  800dda:	f7 da                	neg    %edx
  800ddc:	89 45 f0             	mov    %eax,-0x10(%ebp)
  800ddf:	89 55 f4             	mov    %edx,-0xc(%ebp)
			}
			base = 10;
  800de2:	c7 45 ec 0a 00 00 00 	movl   $0xa,-0x14(%ebp)
			goto number;
  800de9:	e9 bc 00 00 00       	jmp    800eaa <vprintfmt+0x363>

		// unsigned decimal
		case 'u':
			num = getuint(&ap, lflag);
  800dee:	83 ec 08             	sub    $0x8,%esp
  800df1:	ff 75 e8             	pushl  -0x18(%ebp)
  800df4:	8d 45 14             	lea    0x14(%ebp),%eax
  800df7:	50                   	push   %eax
  800df8:	e8 84 fc ff ff       	call   800a81 <getuint>
  800dfd:	83 c4 10             	add    $0x10,%esp
  800e00:	89 45 f0             	mov    %eax,-0x10(%ebp)
  800e03:	89 55 f4             	mov    %edx,-0xc(%ebp)
			base = 10;
  800e06:	c7 45 ec 0a 00 00 00 	movl   $0xa,-0x14(%ebp)
			goto number;
  800e0d:	e9 98 00 00 00       	jmp    800eaa <vprintfmt+0x363>

		// (unsigned) octal
		case 'o':
			// Replace this with your code.
			putch('X', putdat);
  800e12:	83 ec 08             	sub    $0x8,%esp
  800e15:	ff 75 0c             	pushl  0xc(%ebp)
  800e18:	6a 58                	push   $0x58
  800e1a:	8b 45 08             	mov    0x8(%ebp),%eax
  800e1d:	ff d0                	call   *%eax
  800e1f:	83 c4 10             	add    $0x10,%esp
			putch('X', putdat);
  800e22:	83 ec 08             	sub    $0x8,%esp
  800e25:	ff 75 0c             	pushl  0xc(%ebp)
  800e28:	6a 58                	push   $0x58
  800e2a:	8b 45 08             	mov    0x8(%ebp),%eax
  800e2d:	ff d0                	call   *%eax
  800e2f:	83 c4 10             	add    $0x10,%esp
			putch('X', putdat);
  800e32:	83 ec 08             	sub    $0x8,%esp
  800e35:	ff 75 0c             	pushl  0xc(%ebp)
  800e38:	6a 58                	push   $0x58
  800e3a:	8b 45 08             	mov    0x8(%ebp),%eax
  800e3d:	ff d0                	call   *%eax
  800e3f:	83 c4 10             	add    $0x10,%esp
			break;
  800e42:	e9 bc 00 00 00       	jmp    800f03 <vprintfmt+0x3bc>

		// pointer
		case 'p':
			putch('0', putdat);
  800e47:	83 ec 08             	sub    $0x8,%esp
  800e4a:	ff 75 0c             	pushl  0xc(%ebp)
  800e4d:	6a 30                	push   $0x30
  800e4f:	8b 45 08             	mov    0x8(%ebp),%eax
  800e52:	ff d0                	call   *%eax
  800e54:	83 c4 10             	add    $0x10,%esp
			putch('x', putdat);
  800e57:	83 ec 08             	sub    $0x8,%esp
  800e5a:	ff 75 0c             	pushl  0xc(%ebp)
  800e5d:	6a 78                	push   $0x78
  800e5f:	8b 45 08             	mov    0x8(%ebp),%eax
  800e62:	ff d0                	call   *%eax
  800e64:	83 c4 10             	add    $0x10,%esp
			num = (unsigned long long)
				(uint32) va_arg(ap, void *);
  800e67:	8b 45 14             	mov    0x14(%ebp),%eax
  800e6a:	83 c0 04             	add    $0x4,%eax
  800e6d:	89 45 14             	mov    %eax,0x14(%ebp)
  800e70:	8b 45 14             	mov    0x14(%ebp),%eax
  800e73:	83 e8 04             	sub    $0x4,%eax
  800e76:	8b 00                	mov    (%eax),%eax

		// pointer
		case 'p':
			putch('0', putdat);
			putch('x', putdat);
			num = (unsigned long long)
  800e78:	89 45 f0             	mov    %eax,-0x10(%ebp)
  800e7b:	c7 45 f4 00 00 00 00 	movl   $0x0,-0xc(%ebp)
				(uint32) va_arg(ap, void *);
			base = 16;
  800e82:	c7 45 ec 10 00 00 00 	movl   $0x10,-0x14(%ebp)
			goto number;
  800e89:	eb 1f                	jmp    800eaa <vprintfmt+0x363>

		// (unsigned) hexadecimal
		case 'x':
			num = getuint(&ap, lflag);
  800e8b:	83 ec 08             	sub    $0x8,%esp
  800e8e:	ff 75 e8             	pushl  -0x18(%ebp)
  800e91:	8d 45 14             	lea    0x14(%ebp),%eax
  800e94:	50                   	push   %eax
  800e95:	e8 e7 fb ff ff       	call   800a81 <getuint>
  800e9a:	83 c4 10             	add    $0x10,%esp
  800e9d:	89 45 f0             	mov    %eax,-0x10(%ebp)
  800ea0:	89 55 f4             	mov    %edx,-0xc(%ebp)
			base = 16;
  800ea3:	c7 45 ec 10 00 00 00 	movl   $0x10,-0x14(%ebp)
		number:
			printnum(putch, putdat, num, base, width, padc);
  800eaa:	0f be 55 db          	movsbl -0x25(%ebp),%edx
  800eae:	8b 45 ec             	mov    -0x14(%ebp),%eax
  800eb1:	83 ec 04             	sub    $0x4,%esp
  800eb4:	52                   	push   %edx
  800eb5:	ff 75 e4             	pushl  -0x1c(%ebp)
  800eb8:	50                   	push   %eax
  800eb9:	ff 75 f4             	pushl  -0xc(%ebp)
  800ebc:	ff 75 f0             	pushl  -0x10(%ebp)
  800ebf:	ff 75 0c             	pushl  0xc(%ebp)
  800ec2:	ff 75 08             	pushl  0x8(%ebp)
  800ec5:	e8 00 fb ff ff       	call   8009ca <printnum>
  800eca:	83 c4 20             	add    $0x20,%esp
			break;
  800ecd:	eb 34                	jmp    800f03 <vprintfmt+0x3bc>

		// escaped '%' character
		case '%':
			putch(ch, putdat);
  800ecf:	83 ec 08             	sub    $0x8,%esp
  800ed2:	ff 75 0c             	pushl  0xc(%ebp)
  800ed5:	53                   	push   %ebx
  800ed6:	8b 45 08             	mov    0x8(%ebp),%eax
  800ed9:	ff d0                	call   *%eax
  800edb:	83 c4 10             	add    $0x10,%esp
			break;
  800ede:	eb 23                	jmp    800f03 <vprintfmt+0x3bc>

		// unrecognized escape sequence - just print it literally
		default:
			putch('%', putdat);
  800ee0:	83 ec 08             	sub    $0x8,%esp
  800ee3:	ff 75 0c             	pushl  0xc(%ebp)
  800ee6:	6a 25                	push   $0x25
  800ee8:	8b 45 08             	mov    0x8(%ebp),%eax
  800eeb:	ff d0                	call   *%eax
  800eed:	83 c4 10             	add    $0x10,%esp
			for (fmt--; fmt[-1] != '%'; fmt--)
  800ef0:	ff 4d 10             	decl   0x10(%ebp)
  800ef3:	eb 03                	jmp    800ef8 <vprintfmt+0x3b1>
  800ef5:	ff 4d 10             	decl   0x10(%ebp)
  800ef8:	8b 45 10             	mov    0x10(%ebp),%eax
  800efb:	48                   	dec    %eax
  800efc:	8a 00                	mov    (%eax),%al
  800efe:	3c 25                	cmp    $0x25,%al
  800f00:	75 f3                	jne    800ef5 <vprintfmt+0x3ae>
				/* do nothing */;
			break;
  800f02:	90                   	nop
		}
	}
  800f03:	e9 47 fc ff ff       	jmp    800b4f <vprintfmt+0x8>
	char padc;

	while (1) {
		while ((ch = *(unsigned char *) fmt++) != '%') {
			if (ch == '\0')
				return;
  800f08:	90                   	nop
			for (fmt--; fmt[-1] != '%'; fmt--)
				/* do nothing */;
			break;
		}
	}
}
  800f09:	8d 65 f8             	lea    -0x8(%ebp),%esp
  800f0c:	5b                   	pop    %ebx
  800f0d:	5e                   	pop    %esi
  800f0e:	5d                   	pop    %ebp
  800f0f:	c3                   	ret    

00800f10 <printfmt>:

void
printfmt(void (*putch)(int, void*), void *putdat, const char *fmt, ...)
{
  800f10:	55                   	push   %ebp
  800f11:	89 e5                	mov    %esp,%ebp
  800f13:	83 ec 18             	sub    $0x18,%esp
	va_list ap;

	va_start(ap, fmt);
  800f16:	8d 45 10             	lea    0x10(%ebp),%eax
  800f19:	83 c0 04             	add    $0x4,%eax
  800f1c:	89 45 f4             	mov    %eax,-0xc(%ebp)
	vprintfmt(putch, putdat, fmt, ap);
  800f1f:	8b 45 10             	mov    0x10(%ebp),%eax
  800f22:	ff 75 f4             	pushl  -0xc(%ebp)
  800f25:	50                   	push   %eax
  800f26:	ff 75 0c             	pushl  0xc(%ebp)
  800f29:	ff 75 08             	pushl  0x8(%ebp)
  800f2c:	e8 16 fc ff ff       	call   800b47 <vprintfmt>
  800f31:	83 c4 10             	add    $0x10,%esp
	va_end(ap);
}
  800f34:	90                   	nop
  800f35:	c9                   	leave  
  800f36:	c3                   	ret    

00800f37 <sprintputch>:
	int cnt;
};

static void
sprintputch(int ch, struct sprintbuf *b)
{
  800f37:	55                   	push   %ebp
  800f38:	89 e5                	mov    %esp,%ebp
	b->cnt++;
  800f3a:	8b 45 0c             	mov    0xc(%ebp),%eax
  800f3d:	8b 40 08             	mov    0x8(%eax),%eax
  800f40:	8d 50 01             	lea    0x1(%eax),%edx
  800f43:	8b 45 0c             	mov    0xc(%ebp),%eax
  800f46:	89 50 08             	mov    %edx,0x8(%eax)
	if (b->buf < b->ebuf)
  800f49:	8b 45 0c             	mov    0xc(%ebp),%eax
  800f4c:	8b 10                	mov    (%eax),%edx
  800f4e:	8b 45 0c             	mov    0xc(%ebp),%eax
  800f51:	8b 40 04             	mov    0x4(%eax),%eax
  800f54:	39 c2                	cmp    %eax,%edx
  800f56:	73 12                	jae    800f6a <sprintputch+0x33>
		*b->buf++ = ch;
  800f58:	8b 45 0c             	mov    0xc(%ebp),%eax
  800f5b:	8b 00                	mov    (%eax),%eax
  800f5d:	8d 48 01             	lea    0x1(%eax),%ecx
  800f60:	8b 55 0c             	mov    0xc(%ebp),%edx
  800f63:	89 0a                	mov    %ecx,(%edx)
  800f65:	8b 55 08             	mov    0x8(%ebp),%edx
  800f68:	88 10                	mov    %dl,(%eax)
}
  800f6a:	90                   	nop
  800f6b:	5d                   	pop    %ebp
  800f6c:	c3                   	ret    

00800f6d <vsnprintf>:

int
vsnprintf(char *buf, int n, const char *fmt, va_list ap)
{
  800f6d:	55                   	push   %ebp
  800f6e:	89 e5                	mov    %esp,%ebp
  800f70:	83 ec 18             	sub    $0x18,%esp
	struct sprintbuf b = {buf, buf+n-1, 0};
  800f73:	8b 45 08             	mov    0x8(%ebp),%eax
  800f76:	89 45 ec             	mov    %eax,-0x14(%ebp)
  800f79:	8b 45 0c             	mov    0xc(%ebp),%eax
  800f7c:	8d 50 ff             	lea    -0x1(%eax),%edx
  800f7f:	8b 45 08             	mov    0x8(%ebp),%eax
  800f82:	01 d0                	add    %edx,%eax
  800f84:	89 45 f0             	mov    %eax,-0x10(%ebp)
  800f87:	c7 45 f4 00 00 00 00 	movl   $0x0,-0xc(%ebp)

	if (buf == NULL || n < 1)
  800f8e:	83 7d 08 00          	cmpl   $0x0,0x8(%ebp)
  800f92:	74 06                	je     800f9a <vsnprintf+0x2d>
  800f94:	83 7d 0c 00          	cmpl   $0x0,0xc(%ebp)
  800f98:	7f 07                	jg     800fa1 <vsnprintf+0x34>
		return -E_INVAL;
  800f9a:	b8 03 00 00 00       	mov    $0x3,%eax
  800f9f:	eb 20                	jmp    800fc1 <vsnprintf+0x54>

	// print the string to the buffer
	vprintfmt((void*)sprintputch, &b, fmt, ap);
  800fa1:	ff 75 14             	pushl  0x14(%ebp)
  800fa4:	ff 75 10             	pushl  0x10(%ebp)
  800fa7:	8d 45 ec             	lea    -0x14(%ebp),%eax
  800faa:	50                   	push   %eax
  800fab:	68 37 0f 80 00       	push   $0x800f37
  800fb0:	e8 92 fb ff ff       	call   800b47 <vprintfmt>
  800fb5:	83 c4 10             	add    $0x10,%esp

	// null terminate the buffer
	*b.buf = '\0';
  800fb8:	8b 45 ec             	mov    -0x14(%ebp),%eax
  800fbb:	c6 00 00             	movb   $0x0,(%eax)

	return b.cnt;
  800fbe:	8b 45 f4             	mov    -0xc(%ebp),%eax
}
  800fc1:	c9                   	leave  
  800fc2:	c3                   	ret    

00800fc3 <snprintf>:

int
snprintf(char *buf, int n, const char *fmt, ...)
{
  800fc3:	55                   	push   %ebp
  800fc4:	89 e5                	mov    %esp,%ebp
  800fc6:	83 ec 18             	sub    $0x18,%esp
	va_list ap;
	int rc;

	va_start(ap, fmt);
  800fc9:	8d 45 10             	lea    0x10(%ebp),%eax
  800fcc:	83 c0 04             	add    $0x4,%eax
  800fcf:	89 45 f4             	mov    %eax,-0xc(%ebp)
	rc = vsnprintf(buf, n, fmt, ap);
  800fd2:	8b 45 10             	mov    0x10(%ebp),%eax
  800fd5:	ff 75 f4             	pushl  -0xc(%ebp)
  800fd8:	50                   	push   %eax
  800fd9:	ff 75 0c             	pushl  0xc(%ebp)
  800fdc:	ff 75 08             	pushl  0x8(%ebp)
  800fdf:	e8 89 ff ff ff       	call   800f6d <vsnprintf>
  800fe4:	83 c4 10             	add    $0x10,%esp
  800fe7:	89 45 f0             	mov    %eax,-0x10(%ebp)
	va_end(ap);

	return rc;
  800fea:	8b 45 f0             	mov    -0x10(%ebp),%eax
}
  800fed:	c9                   	leave  
  800fee:	c3                   	ret    

00800fef <strlen>:

#include <inc/string.h>
#include <inc/assert.h>
int
strlen(const char *s)
{
  800fef:	55                   	push   %ebp
  800ff0:	89 e5                	mov    %esp,%ebp
  800ff2:	83 ec 10             	sub    $0x10,%esp
	int n;

	for (n = 0; *s != '\0'; s++)
  800ff5:	c7 45 fc 00 00 00 00 	movl   $0x0,-0x4(%ebp)
  800ffc:	eb 06                	jmp    801004 <strlen+0x15>
		n++;
  800ffe:	ff 45 fc             	incl   -0x4(%ebp)
int
strlen(const char *s)
{
	int n;

	for (n = 0; *s != '\0'; s++)
  801001:	ff 45 08             	incl   0x8(%ebp)
  801004:	8b 45 08             	mov    0x8(%ebp),%eax
  801007:	8a 00                	mov    (%eax),%al
  801009:	84 c0                	test   %al,%al
  80100b:	75 f1                	jne    800ffe <strlen+0xf>
		n++;
	return n;
  80100d:	8b 45 fc             	mov    -0x4(%ebp),%eax
}
  801010:	c9                   	leave  
  801011:	c3                   	ret    

00801012 <strnlen>:

int
strnlen(const char *s, uint32 size)
{
  801012:	55                   	push   %ebp
  801013:	89 e5                	mov    %esp,%ebp
  801015:	83 ec 10             	sub    $0x10,%esp
	int n;

	for (n = 0; size > 0 && *s != '\0'; s++, size--)
  801018:	c7 45 fc 00 00 00 00 	movl   $0x0,-0x4(%ebp)
  80101f:	eb 09                	jmp    80102a <strnlen+0x18>
		n++;
  801021:	ff 45 fc             	incl   -0x4(%ebp)
int
strnlen(const char *s, uint32 size)
{
	int n;

	for (n = 0; size > 0 && *s != '\0'; s++, size--)
  801024:	ff 45 08             	incl   0x8(%ebp)
  801027:	ff 4d 0c             	decl   0xc(%ebp)
  80102a:	83 7d 0c 00          	cmpl   $0x0,0xc(%ebp)
  80102e:	74 09                	je     801039 <strnlen+0x27>
  801030:	8b 45 08             	mov    0x8(%ebp),%eax
  801033:	8a 00                	mov    (%eax),%al
  801035:	84 c0                	test   %al,%al
  801037:	75 e8                	jne    801021 <strnlen+0xf>
		n++;
	return n;
  801039:	8b 45 fc             	mov    -0x4(%ebp),%eax
}
  80103c:	c9                   	leave  
  80103d:	c3                   	ret    

0080103e <strcpy>:

char *
strcpy(char *dst, const char *src)
{
  80103e:	55                   	push   %ebp
  80103f:	89 e5                	mov    %esp,%ebp
  801041:	83 ec 10             	sub    $0x10,%esp
	char *ret;

	ret = dst;
  801044:	8b 45 08             	mov    0x8(%ebp),%eax
  801047:	89 45 fc             	mov    %eax,-0x4(%ebp)
	while ((*dst++ = *src++) != '\0')
  80104a:	90                   	nop
  80104b:	8b 45 08             	mov    0x8(%ebp),%eax
  80104e:	8d 50 01             	lea    0x1(%eax),%edx
  801051:	89 55 08             	mov    %edx,0x8(%ebp)
  801054:	8b 55 0c             	mov    0xc(%ebp),%edx
  801057:	8d 4a 01             	lea    0x1(%edx),%ecx
  80105a:	89 4d 0c             	mov    %ecx,0xc(%ebp)
  80105d:	8a 12                	mov    (%edx),%dl
  80105f:	88 10                	mov    %dl,(%eax)
  801061:	8a 00                	mov    (%eax),%al
  801063:	84 c0                	test   %al,%al
  801065:	75 e4                	jne    80104b <strcpy+0xd>
		/* do nothing */;
	return ret;
  801067:	8b 45 fc             	mov    -0x4(%ebp),%eax
}
  80106a:	c9                   	leave  
  80106b:	c3                   	ret    

0080106c <strncpy>:

char *
strncpy(char *dst, const char *src, uint32 size) {
  80106c:	55                   	push   %ebp
  80106d:	89 e5                	mov    %esp,%ebp
  80106f:	83 ec 10             	sub    $0x10,%esp
	uint32 i;
	char *ret;

	ret = dst;
  801072:	8b 45 08             	mov    0x8(%ebp),%eax
  801075:	89 45 f8             	mov    %eax,-0x8(%ebp)
	for (i = 0; i < size; i++) {
  801078:	c7 45 fc 00 00 00 00 	movl   $0x0,-0x4(%ebp)
  80107f:	eb 1f                	jmp    8010a0 <strncpy+0x34>
		*dst++ = *src;
  801081:	8b 45 08             	mov    0x8(%ebp),%eax
  801084:	8d 50 01             	lea    0x1(%eax),%edx
  801087:	89 55 08             	mov    %edx,0x8(%ebp)
  80108a:	8b 55 0c             	mov    0xc(%ebp),%edx
  80108d:	8a 12                	mov    (%edx),%dl
  80108f:	88 10                	mov    %dl,(%eax)
		// If strlen(src) < size, null-pad 'dst' out to 'size' chars
		if (*src != '\0')
  801091:	8b 45 0c             	mov    0xc(%ebp),%eax
  801094:	8a 00                	mov    (%eax),%al
  801096:	84 c0                	test   %al,%al
  801098:	74 03                	je     80109d <strncpy+0x31>
			src++;
  80109a:	ff 45 0c             	incl   0xc(%ebp)
strncpy(char *dst, const char *src, uint32 size) {
	uint32 i;
	char *ret;

	ret = dst;
	for (i = 0; i < size; i++) {
  80109d:	ff 45 fc             	incl   -0x4(%ebp)
  8010a0:	8b 45 fc             	mov    -0x4(%ebp),%eax
  8010a3:	3b 45 10             	cmp    0x10(%ebp),%eax
  8010a6:	72 d9                	jb     801081 <strncpy+0x15>
		*dst++ = *src;
		// If strlen(src) < size, null-pad 'dst' out to 'size' chars
		if (*src != '\0')
			src++;
	}
	return ret;
  8010a8:	8b 45 f8             	mov    -0x8(%ebp),%eax
}
  8010ab:	c9                   	leave  
  8010ac:	c3                   	ret    

008010ad <strlcpy>:

uint32
strlcpy(char *dst, const char *src, uint32 size)
{
  8010ad:	55                   	push   %ebp
  8010ae:	89 e5                	mov    %esp,%ebp
  8010b0:	83 ec 10             	sub    $0x10,%esp
	char *dst_in;

	dst_in = dst;
  8010b3:	8b 45 08             	mov    0x8(%ebp),%eax
  8010b6:	89 45 fc             	mov    %eax,-0x4(%ebp)
	if (size > 0) {
  8010b9:	83 7d 10 00          	cmpl   $0x0,0x10(%ebp)
  8010bd:	74 30                	je     8010ef <strlcpy+0x42>
		while (--size > 0 && *src != '\0')
  8010bf:	eb 16                	jmp    8010d7 <strlcpy+0x2a>
			*dst++ = *src++;
  8010c1:	8b 45 08             	mov    0x8(%ebp),%eax
  8010c4:	8d 50 01             	lea    0x1(%eax),%edx
  8010c7:	89 55 08             	mov    %edx,0x8(%ebp)
  8010ca:	8b 55 0c             	mov    0xc(%ebp),%edx
  8010cd:	8d 4a 01             	lea    0x1(%edx),%ecx
  8010d0:	89 4d 0c             	mov    %ecx,0xc(%ebp)
  8010d3:	8a 12                	mov    (%edx),%dl
  8010d5:	88 10                	mov    %dl,(%eax)
{
	char *dst_in;

	dst_in = dst;
	if (size > 0) {
		while (--size > 0 && *src != '\0')
  8010d7:	ff 4d 10             	decl   0x10(%ebp)
  8010da:	83 7d 10 00          	cmpl   $0x0,0x10(%ebp)
  8010de:	74 09                	je     8010e9 <strlcpy+0x3c>
  8010e0:	8b 45 0c             	mov    0xc(%ebp),%eax
  8010e3:	8a 00                	mov    (%eax),%al
  8010e5:	84 c0                	test   %al,%al
  8010e7:	75 d8                	jne    8010c1 <strlcpy+0x14>
			*dst++ = *src++;
		*dst = '\0';
  8010e9:	8b 45 08             	mov    0x8(%ebp),%eax
  8010ec:	c6 00 00             	movb   $0x0,(%eax)
	}
	return dst - dst_in;
  8010ef:	8b 55 08             	mov    0x8(%ebp),%edx
  8010f2:	8b 45 fc             	mov    -0x4(%ebp),%eax
  8010f5:	29 c2                	sub    %eax,%edx
  8010f7:	89 d0                	mov    %edx,%eax
}
  8010f9:	c9                   	leave  
  8010fa:	c3                   	ret    

008010fb <strcmp>:

int
strcmp(const char *p, const char *q)
{
  8010fb:	55                   	push   %ebp
  8010fc:	89 e5                	mov    %esp,%ebp
	while (*p && *p == *q)
  8010fe:	eb 06                	jmp    801106 <strcmp+0xb>
		p++, q++;
  801100:	ff 45 08             	incl   0x8(%ebp)
  801103:	ff 45 0c             	incl   0xc(%ebp)
}

int
strcmp(const char *p, const char *q)
{
	while (*p && *p == *q)
  801106:	8b 45 08             	mov    0x8(%ebp),%eax
  801109:	8a 00                	mov    (%eax),%al
  80110b:	84 c0                	test   %al,%al
  80110d:	74 0e                	je     80111d <strcmp+0x22>
  80110f:	8b 45 08             	mov    0x8(%ebp),%eax
  801112:	8a 10                	mov    (%eax),%dl
  801114:	8b 45 0c             	mov    0xc(%ebp),%eax
  801117:	8a 00                	mov    (%eax),%al
  801119:	38 c2                	cmp    %al,%dl
  80111b:	74 e3                	je     801100 <strcmp+0x5>
		p++, q++;
	return (int) ((unsigned char) *p - (unsigned char) *q);
  80111d:	8b 45 08             	mov    0x8(%ebp),%eax
  801120:	8a 00                	mov    (%eax),%al
  801122:	0f b6 d0             	movzbl %al,%edx
  801125:	8b 45 0c             	mov    0xc(%ebp),%eax
  801128:	8a 00                	mov    (%eax),%al
  80112a:	0f b6 c0             	movzbl %al,%eax
  80112d:	29 c2                	sub    %eax,%edx
  80112f:	89 d0                	mov    %edx,%eax
}
  801131:	5d                   	pop    %ebp
  801132:	c3                   	ret    

00801133 <strncmp>:

int
strncmp(const char *p, const char *q, uint32 n)
{
  801133:	55                   	push   %ebp
  801134:	89 e5                	mov    %esp,%ebp
	while (n > 0 && *p && *p == *q)
  801136:	eb 09                	jmp    801141 <strncmp+0xe>
		n--, p++, q++;
  801138:	ff 4d 10             	decl   0x10(%ebp)
  80113b:	ff 45 08             	incl   0x8(%ebp)
  80113e:	ff 45 0c             	incl   0xc(%ebp)
}

int
strncmp(const char *p, const char *q, uint32 n)
{
	while (n > 0 && *p && *p == *q)
  801141:	83 7d 10 00          	cmpl   $0x0,0x10(%ebp)
  801145:	74 17                	je     80115e <strncmp+0x2b>
  801147:	8b 45 08             	mov    0x8(%ebp),%eax
  80114a:	8a 00                	mov    (%eax),%al
  80114c:	84 c0                	test   %al,%al
  80114e:	74 0e                	je     80115e <strncmp+0x2b>
  801150:	8b 45 08             	mov    0x8(%ebp),%eax
  801153:	8a 10                	mov    (%eax),%dl
  801155:	8b 45 0c             	mov    0xc(%ebp),%eax
  801158:	8a 00                	mov    (%eax),%al
  80115a:	38 c2                	cmp    %al,%dl
  80115c:	74 da                	je     801138 <strncmp+0x5>
		n--, p++, q++;
	if (n == 0)
  80115e:	83 7d 10 00          	cmpl   $0x0,0x10(%ebp)
  801162:	75 07                	jne    80116b <strncmp+0x38>
		return 0;
  801164:	b8 00 00 00 00       	mov    $0x0,%eax
  801169:	eb 14                	jmp    80117f <strncmp+0x4c>
	else
		return (int) ((unsigned char) *p - (unsigned char) *q);
  80116b:	8b 45 08             	mov    0x8(%ebp),%eax
  80116e:	8a 00                	mov    (%eax),%al
  801170:	0f b6 d0             	movzbl %al,%edx
  801173:	8b 45 0c             	mov    0xc(%ebp),%eax
  801176:	8a 00                	mov    (%eax),%al
  801178:	0f b6 c0             	movzbl %al,%eax
  80117b:	29 c2                	sub    %eax,%edx
  80117d:	89 d0                	mov    %edx,%eax
}
  80117f:	5d                   	pop    %ebp
  801180:	c3                   	ret    

00801181 <strchr>:

// Return a pointer to the first occurrence of 'c' in 's',
// or a null pointer if the string has no 'c'.
char *
strchr(const char *s, char c)
{
  801181:	55                   	push   %ebp
  801182:	89 e5                	mov    %esp,%ebp
  801184:	83 ec 04             	sub    $0x4,%esp
  801187:	8b 45 0c             	mov    0xc(%ebp),%eax
  80118a:	88 45 fc             	mov    %al,-0x4(%ebp)
	for (; *s; s++)
  80118d:	eb 12                	jmp    8011a1 <strchr+0x20>
		if (*s == c)
  80118f:	8b 45 08             	mov    0x8(%ebp),%eax
  801192:	8a 00                	mov    (%eax),%al
  801194:	3a 45 fc             	cmp    -0x4(%ebp),%al
  801197:	75 05                	jne    80119e <strchr+0x1d>
			return (char *) s;
  801199:	8b 45 08             	mov    0x8(%ebp),%eax
  80119c:	eb 11                	jmp    8011af <strchr+0x2e>
// Return a pointer to the first occurrence of 'c' in 's',
// or a null pointer if the string has no 'c'.
char *
strchr(const char *s, char c)
{
	for (; *s; s++)
  80119e:	ff 45 08             	incl   0x8(%ebp)
  8011a1:	8b 45 08             	mov    0x8(%ebp),%eax
  8011a4:	8a 00                	mov    (%eax),%al
  8011a6:	84 c0                	test   %al,%al
  8011a8:	75 e5                	jne    80118f <strchr+0xe>
		if (*s == c)
			return (char *) s;
	return 0;
  8011aa:	b8 00 00 00 00       	mov    $0x0,%eax
}
  8011af:	c9                   	leave  
  8011b0:	c3                   	ret    

008011b1 <strfind>:

// Return a pointer to the first occurrence of 'c' in 's',
// or a pointer to the string-ending null character if the string has no 'c'.
char *
strfind(const char *s, char c)
{
  8011b1:	55                   	push   %ebp
  8011b2:	89 e5                	mov    %esp,%ebp
  8011b4:	83 ec 04             	sub    $0x4,%esp
  8011b7:	8b 45 0c             	mov    0xc(%ebp),%eax
  8011ba:	88 45 fc             	mov    %al,-0x4(%ebp)
	for (; *s; s++)
  8011bd:	eb 0d                	jmp    8011cc <strfind+0x1b>
		if (*s == c)
  8011bf:	8b 45 08             	mov    0x8(%ebp),%eax
  8011c2:	8a 00                	mov    (%eax),%al
  8011c4:	3a 45 fc             	cmp    -0x4(%ebp),%al
  8011c7:	74 0e                	je     8011d7 <strfind+0x26>
// Return a pointer to the first occurrence of 'c' in 's',
// or a pointer to the string-ending null character if the string has no 'c'.
char *
strfind(const char *s, char c)
{
	for (; *s; s++)
  8011c9:	ff 45 08             	incl   0x8(%ebp)
  8011cc:	8b 45 08             	mov    0x8(%ebp),%eax
  8011cf:	8a 00                	mov    (%eax),%al
  8011d1:	84 c0                	test   %al,%al
  8011d3:	75 ea                	jne    8011bf <strfind+0xe>
  8011d5:	eb 01                	jmp    8011d8 <strfind+0x27>
		if (*s == c)
			break;
  8011d7:	90                   	nop
	return (char *) s;
  8011d8:	8b 45 08             	mov    0x8(%ebp),%eax
}
  8011db:	c9                   	leave  
  8011dc:	c3                   	ret    

008011dd <memset>:


void *
memset(void *v, int c, uint32 n)
{
  8011dd:	55                   	push   %ebp
  8011de:	89 e5                	mov    %esp,%ebp
  8011e0:	83 ec 10             	sub    $0x10,%esp
	char *p;
	int m;

	p = v;
  8011e3:	8b 45 08             	mov    0x8(%ebp),%eax
  8011e6:	89 45 fc             	mov    %eax,-0x4(%ebp)
	m = n;
  8011e9:	8b 45 10             	mov    0x10(%ebp),%eax
  8011ec:	89 45 f8             	mov    %eax,-0x8(%ebp)
	while (--m >= 0)
  8011ef:	eb 0e                	jmp    8011ff <memset+0x22>
		*p++ = c;
  8011f1:	8b 45 fc             	mov    -0x4(%ebp),%eax
  8011f4:	8d 50 01             	lea    0x1(%eax),%edx
  8011f7:	89 55 fc             	mov    %edx,-0x4(%ebp)
  8011fa:	8b 55 0c             	mov    0xc(%ebp),%edx
  8011fd:	88 10                	mov    %dl,(%eax)
	char *p;
	int m;

	p = v;
	m = n;
	while (--m >= 0)
  8011ff:	ff 4d f8             	decl   -0x8(%ebp)
  801202:	83 7d f8 00          	cmpl   $0x0,-0x8(%ebp)
  801206:	79 e9                	jns    8011f1 <memset+0x14>
		*p++ = c;

	return v;
  801208:	8b 45 08             	mov    0x8(%ebp),%eax
}
  80120b:	c9                   	leave  
  80120c:	c3                   	ret    

0080120d <memcpy>:

void *
memcpy(void *dst, const void *src, uint32 n)
{
  80120d:	55                   	push   %ebp
  80120e:	89 e5                	mov    %esp,%ebp
  801210:	83 ec 10             	sub    $0x10,%esp
	const char *s;
	char *d;

	s = src;
  801213:	8b 45 0c             	mov    0xc(%ebp),%eax
  801216:	89 45 fc             	mov    %eax,-0x4(%ebp)
	d = dst;
  801219:	8b 45 08             	mov    0x8(%ebp),%eax
  80121c:	89 45 f8             	mov    %eax,-0x8(%ebp)
	while (n-- > 0)
  80121f:	eb 16                	jmp    801237 <memcpy+0x2a>
		*d++ = *s++;
  801221:	8b 45 f8             	mov    -0x8(%ebp),%eax
  801224:	8d 50 01             	lea    0x1(%eax),%edx
  801227:	89 55 f8             	mov    %edx,-0x8(%ebp)
  80122a:	8b 55 fc             	mov    -0x4(%ebp),%edx
  80122d:	8d 4a 01             	lea    0x1(%edx),%ecx
  801230:	89 4d fc             	mov    %ecx,-0x4(%ebp)
  801233:	8a 12                	mov    (%edx),%dl
  801235:	88 10                	mov    %dl,(%eax)
	const char *s;
	char *d;

	s = src;
	d = dst;
	while (n-- > 0)
  801237:	8b 45 10             	mov    0x10(%ebp),%eax
  80123a:	8d 50 ff             	lea    -0x1(%eax),%edx
  80123d:	89 55 10             	mov    %edx,0x10(%ebp)
  801240:	85 c0                	test   %eax,%eax
  801242:	75 dd                	jne    801221 <memcpy+0x14>
		*d++ = *s++;

	return dst;
  801244:	8b 45 08             	mov    0x8(%ebp),%eax
}
  801247:	c9                   	leave  
  801248:	c3                   	ret    

00801249 <memmove>:

void *
memmove(void *dst, const void *src, uint32 n)
{
  801249:	55                   	push   %ebp
  80124a:	89 e5                	mov    %esp,%ebp
  80124c:	83 ec 10             	sub    $0x10,%esp
	const char *s;
	char *d;

	s = src;
  80124f:	8b 45 0c             	mov    0xc(%ebp),%eax
  801252:	89 45 fc             	mov    %eax,-0x4(%ebp)
	d = dst;
  801255:	8b 45 08             	mov    0x8(%ebp),%eax
  801258:	89 45 f8             	mov    %eax,-0x8(%ebp)
	if (s < d && s + n > d) {
  80125b:	8b 45 fc             	mov    -0x4(%ebp),%eax
  80125e:	3b 45 f8             	cmp    -0x8(%ebp),%eax
  801261:	73 50                	jae    8012b3 <memmove+0x6a>
  801263:	8b 55 fc             	mov    -0x4(%ebp),%edx
  801266:	8b 45 10             	mov    0x10(%ebp),%eax
  801269:	01 d0                	add    %edx,%eax
  80126b:	3b 45 f8             	cmp    -0x8(%ebp),%eax
  80126e:	76 43                	jbe    8012b3 <memmove+0x6a>
		s += n;
  801270:	8b 45 10             	mov    0x10(%ebp),%eax
  801273:	01 45 fc             	add    %eax,-0x4(%ebp)
		d += n;
  801276:	8b 45 10             	mov    0x10(%ebp),%eax
  801279:	01 45 f8             	add    %eax,-0x8(%ebp)
		while (n-- > 0)
  80127c:	eb 10                	jmp    80128e <memmove+0x45>
			*--d = *--s;
  80127e:	ff 4d f8             	decl   -0x8(%ebp)
  801281:	ff 4d fc             	decl   -0x4(%ebp)
  801284:	8b 45 fc             	mov    -0x4(%ebp),%eax
  801287:	8a 10                	mov    (%eax),%dl
  801289:	8b 45 f8             	mov    -0x8(%ebp),%eax
  80128c:	88 10                	mov    %dl,(%eax)
	s = src;
	d = dst;
	if (s < d && s + n > d) {
		s += n;
		d += n;
		while (n-- > 0)
  80128e:	8b 45 10             	mov    0x10(%ebp),%eax
  801291:	8d 50 ff             	lea    -0x1(%eax),%edx
  801294:	89 55 10             	mov    %edx,0x10(%ebp)
  801297:	85 c0                	test   %eax,%eax
  801299:	75 e3                	jne    80127e <memmove+0x35>
	const char *s;
	char *d;

	s = src;
	d = dst;
	if (s < d && s + n > d) {
  80129b:	eb 23                	jmp    8012c0 <memmove+0x77>
		d += n;
		while (n-- > 0)
			*--d = *--s;
	} else
		while (n-- > 0)
			*d++ = *s++;
  80129d:	8b 45 f8             	mov    -0x8(%ebp),%eax
  8012a0:	8d 50 01             	lea    0x1(%eax),%edx
  8012a3:	89 55 f8             	mov    %edx,-0x8(%ebp)
  8012a6:	8b 55 fc             	mov    -0x4(%ebp),%edx
  8012a9:	8d 4a 01             	lea    0x1(%edx),%ecx
  8012ac:	89 4d fc             	mov    %ecx,-0x4(%ebp)
  8012af:	8a 12                	mov    (%edx),%dl
  8012b1:	88 10                	mov    %dl,(%eax)
		s += n;
		d += n;
		while (n-- > 0)
			*--d = *--s;
	} else
		while (n-- > 0)
  8012b3:	8b 45 10             	mov    0x10(%ebp),%eax
  8012b6:	8d 50 ff             	lea    -0x1(%eax),%edx
  8012b9:	89 55 10             	mov    %edx,0x10(%ebp)
  8012bc:	85 c0                	test   %eax,%eax
  8012be:	75 dd                	jne    80129d <memmove+0x54>
			*d++ = *s++;

	return dst;
  8012c0:	8b 45 08             	mov    0x8(%ebp),%eax
}
  8012c3:	c9                   	leave  
  8012c4:	c3                   	ret    

008012c5 <memcmp>:

int
memcmp(const void *v1, const void *v2, uint32 n)
{
  8012c5:	55                   	push   %ebp
  8012c6:	89 e5                	mov    %esp,%ebp
  8012c8:	83 ec 10             	sub    $0x10,%esp
	const uint8 *s1 = (const uint8 *) v1;
  8012cb:	8b 45 08             	mov    0x8(%ebp),%eax
  8012ce:	89 45 fc             	mov    %eax,-0x4(%ebp)
	const uint8 *s2 = (const uint8 *) v2;
  8012d1:	8b 45 0c             	mov    0xc(%ebp),%eax
  8012d4:	89 45 f8             	mov    %eax,-0x8(%ebp)

	while (n-- > 0) {
  8012d7:	eb 2a                	jmp    801303 <memcmp+0x3e>
		if (*s1 != *s2)
  8012d9:	8b 45 fc             	mov    -0x4(%ebp),%eax
  8012dc:	8a 10                	mov    (%eax),%dl
  8012de:	8b 45 f8             	mov    -0x8(%ebp),%eax
  8012e1:	8a 00                	mov    (%eax),%al
  8012e3:	38 c2                	cmp    %al,%dl
  8012e5:	74 16                	je     8012fd <memcmp+0x38>
			return (int) *s1 - (int) *s2;
  8012e7:	8b 45 fc             	mov    -0x4(%ebp),%eax
  8012ea:	8a 00                	mov    (%eax),%al
  8012ec:	0f b6 d0             	movzbl %al,%edx
  8012ef:	8b 45 f8             	mov    -0x8(%ebp),%eax
  8012f2:	8a 00                	mov    (%eax),%al
  8012f4:	0f b6 c0             	movzbl %al,%eax
  8012f7:	29 c2                	sub    %eax,%edx
  8012f9:	89 d0                	mov    %edx,%eax
  8012fb:	eb 18                	jmp    801315 <memcmp+0x50>
		s1++, s2++;
  8012fd:	ff 45 fc             	incl   -0x4(%ebp)
  801300:	ff 45 f8             	incl   -0x8(%ebp)
memcmp(const void *v1, const void *v2, uint32 n)
{
	const uint8 *s1 = (const uint8 *) v1;
	const uint8 *s2 = (const uint8 *) v2;

	while (n-- > 0) {
  801303:	8b 45 10             	mov    0x10(%ebp),%eax
  801306:	8d 50 ff             	lea    -0x1(%eax),%edx
  801309:	89 55 10             	mov    %edx,0x10(%ebp)
  80130c:	85 c0                	test   %eax,%eax
  80130e:	75 c9                	jne    8012d9 <memcmp+0x14>
		if (*s1 != *s2)
			return (int) *s1 - (int) *s2;
		s1++, s2++;
	}

	return 0;
  801310:	b8 00 00 00 00       	mov    $0x0,%eax
}
  801315:	c9                   	leave  
  801316:	c3                   	ret    

00801317 <memfind>:

void *
memfind(const void *s, int c, uint32 n)
{
  801317:	55                   	push   %ebp
  801318:	89 e5                	mov    %esp,%ebp
  80131a:	83 ec 10             	sub    $0x10,%esp
	const void *ends = (const char *) s + n;
  80131d:	8b 55 08             	mov    0x8(%ebp),%edx
  801320:	8b 45 10             	mov    0x10(%ebp),%eax
  801323:	01 d0                	add    %edx,%eax
  801325:	89 45 fc             	mov    %eax,-0x4(%ebp)
	for (; s < ends; s++)
  801328:	eb 15                	jmp    80133f <memfind+0x28>
		if (*(const unsigned char *) s == (unsigned char) c)
  80132a:	8b 45 08             	mov    0x8(%ebp),%eax
  80132d:	8a 00                	mov    (%eax),%al
  80132f:	0f b6 d0             	movzbl %al,%edx
  801332:	8b 45 0c             	mov    0xc(%ebp),%eax
  801335:	0f b6 c0             	movzbl %al,%eax
  801338:	39 c2                	cmp    %eax,%edx
  80133a:	74 0d                	je     801349 <memfind+0x32>

void *
memfind(const void *s, int c, uint32 n)
{
	const void *ends = (const char *) s + n;
	for (; s < ends; s++)
  80133c:	ff 45 08             	incl   0x8(%ebp)
  80133f:	8b 45 08             	mov    0x8(%ebp),%eax
  801342:	3b 45 fc             	cmp    -0x4(%ebp),%eax
  801345:	72 e3                	jb     80132a <memfind+0x13>
  801347:	eb 01                	jmp    80134a <memfind+0x33>
		if (*(const unsigned char *) s == (unsigned char) c)
			break;
  801349:	90                   	nop
	return (void *) s;
  80134a:	8b 45 08             	mov    0x8(%ebp),%eax
}
  80134d:	c9                   	leave  
  80134e:	c3                   	ret    

0080134f <strtol>:

long
strtol(const char *s, char **endptr, int base)
{
  80134f:	55                   	push   %ebp
  801350:	89 e5                	mov    %esp,%ebp
  801352:	83 ec 10             	sub    $0x10,%esp
	int neg = 0;
  801355:	c7 45 fc 00 00 00 00 	movl   $0x0,-0x4(%ebp)
	long val = 0;
  80135c:	c7 45 f8 00 00 00 00 	movl   $0x0,-0x8(%ebp)

	// gobble initial whitespace
	while (*s == ' ' || *s == '\t')
  801363:	eb 03                	jmp    801368 <strtol+0x19>
		s++;
  801365:	ff 45 08             	incl   0x8(%ebp)
{
	int neg = 0;
	long val = 0;

	// gobble initial whitespace
	while (*s == ' ' || *s == '\t')
  801368:	8b 45 08             	mov    0x8(%ebp),%eax
  80136b:	8a 00                	mov    (%eax),%al
  80136d:	3c 20                	cmp    $0x20,%al
  80136f:	74 f4                	je     801365 <strtol+0x16>
  801371:	8b 45 08             	mov    0x8(%ebp),%eax
  801374:	8a 00                	mov    (%eax),%al
  801376:	3c 09                	cmp    $0x9,%al
  801378:	74 eb                	je     801365 <strtol+0x16>
		s++;

	// plus/minus sign
	if (*s == '+')
  80137a:	8b 45 08             	mov    0x8(%ebp),%eax
  80137d:	8a 00                	mov    (%eax),%al
  80137f:	3c 2b                	cmp    $0x2b,%al
  801381:	75 05                	jne    801388 <strtol+0x39>
		s++;
  801383:	ff 45 08             	incl   0x8(%ebp)
  801386:	eb 13                	jmp    80139b <strtol+0x4c>
	else if (*s == '-')
  801388:	8b 45 08             	mov    0x8(%ebp),%eax
  80138b:	8a 00                	mov    (%eax),%al
  80138d:	3c 2d                	cmp    $0x2d,%al
  80138f:	75 0a                	jne    80139b <strtol+0x4c>
		s++, neg = 1;
  801391:	ff 45 08             	incl   0x8(%ebp)
  801394:	c7 45 fc 01 00 00 00 	movl   $0x1,-0x4(%ebp)

	// hex or octal base prefix
	if ((base == 0 || base == 16) && (s[0] == '0' && s[1] == 'x'))
  80139b:	83 7d 10 00          	cmpl   $0x0,0x10(%ebp)
  80139f:	74 06                	je     8013a7 <strtol+0x58>
  8013a1:	83 7d 10 10          	cmpl   $0x10,0x10(%ebp)
  8013a5:	75 20                	jne    8013c7 <strtol+0x78>
  8013a7:	8b 45 08             	mov    0x8(%ebp),%eax
  8013aa:	8a 00                	mov    (%eax),%al
  8013ac:	3c 30                	cmp    $0x30,%al
  8013ae:	75 17                	jne    8013c7 <strtol+0x78>
  8013b0:	8b 45 08             	mov    0x8(%ebp),%eax
  8013b3:	40                   	inc    %eax
  8013b4:	8a 00                	mov    (%eax),%al
  8013b6:	3c 78                	cmp    $0x78,%al
  8013b8:	75 0d                	jne    8013c7 <strtol+0x78>
		s += 2, base = 16;
  8013ba:	83 45 08 02          	addl   $0x2,0x8(%ebp)
  8013be:	c7 45 10 10 00 00 00 	movl   $0x10,0x10(%ebp)
  8013c5:	eb 28                	jmp    8013ef <strtol+0xa0>
	else if (base == 0 && s[0] == '0')
  8013c7:	83 7d 10 00          	cmpl   $0x0,0x10(%ebp)
  8013cb:	75 15                	jne    8013e2 <strtol+0x93>
  8013cd:	8b 45 08             	mov    0x8(%ebp),%eax
  8013d0:	8a 00                	mov    (%eax),%al
  8013d2:	3c 30                	cmp    $0x30,%al
  8013d4:	75 0c                	jne    8013e2 <strtol+0x93>
		s++, base = 8;
  8013d6:	ff 45 08             	incl   0x8(%ebp)
  8013d9:	c7 45 10 08 00 00 00 	movl   $0x8,0x10(%ebp)
  8013e0:	eb 0d                	jmp    8013ef <strtol+0xa0>
	else if (base == 0)
  8013e2:	83 7d 10 00          	cmpl   $0x0,0x10(%ebp)
  8013e6:	75 07                	jne    8013ef <strtol+0xa0>
		base = 10;
  8013e8:	c7 45 10 0a 00 00 00 	movl   $0xa,0x10(%ebp)

	// digits
	while (1) {
		int dig;

		if (*s >= '0' && *s <= '9')
  8013ef:	8b 45 08             	mov    0x8(%ebp),%eax
  8013f2:	8a 00                	mov    (%eax),%al
  8013f4:	3c 2f                	cmp    $0x2f,%al
  8013f6:	7e 19                	jle    801411 <strtol+0xc2>
  8013f8:	8b 45 08             	mov    0x8(%ebp),%eax
  8013fb:	8a 00                	mov    (%eax),%al
  8013fd:	3c 39                	cmp    $0x39,%al
  8013ff:	7f 10                	jg     801411 <strtol+0xc2>
			dig = *s - '0';
  801401:	8b 45 08             	mov    0x8(%ebp),%eax
  801404:	8a 00                	mov    (%eax),%al
  801406:	0f be c0             	movsbl %al,%eax
  801409:	83 e8 30             	sub    $0x30,%eax
  80140c:	89 45 f4             	mov    %eax,-0xc(%ebp)
  80140f:	eb 42                	jmp    801453 <strtol+0x104>
		else if (*s >= 'a' && *s <= 'z')
  801411:	8b 45 08             	mov    0x8(%ebp),%eax
  801414:	8a 00                	mov    (%eax),%al
  801416:	3c 60                	cmp    $0x60,%al
  801418:	7e 19                	jle    801433 <strtol+0xe4>
  80141a:	8b 45 08             	mov    0x8(%ebp),%eax
  80141d:	8a 00                	mov    (%eax),%al
  80141f:	3c 7a                	cmp    $0x7a,%al
  801421:	7f 10                	jg     801433 <strtol+0xe4>
			dig = *s - 'a' + 10;
  801423:	8b 45 08             	mov    0x8(%ebp),%eax
  801426:	8a 00                	mov    (%eax),%al
  801428:	0f be c0             	movsbl %al,%eax
  80142b:	83 e8 57             	sub    $0x57,%eax
  80142e:	89 45 f4             	mov    %eax,-0xc(%ebp)
  801431:	eb 20                	jmp    801453 <strtol+0x104>
		else if (*s >= 'A' && *s <= 'Z')
  801433:	8b 45 08             	mov    0x8(%ebp),%eax
  801436:	8a 00                	mov    (%eax),%al
  801438:	3c 40                	cmp    $0x40,%al
  80143a:	7e 39                	jle    801475 <strtol+0x126>
  80143c:	8b 45 08             	mov    0x8(%ebp),%eax
  80143f:	8a 00                	mov    (%eax),%al
  801441:	3c 5a                	cmp    $0x5a,%al
  801443:	7f 30                	jg     801475 <strtol+0x126>
			dig = *s - 'A' + 10;
  801445:	8b 45 08             	mov    0x8(%ebp),%eax
  801448:	8a 00                	mov    (%eax),%al
  80144a:	0f be c0             	movsbl %al,%eax
  80144d:	83 e8 37             	sub    $0x37,%eax
  801450:	89 45 f4             	mov    %eax,-0xc(%ebp)
		else
			break;
		if (dig >= base)
  801453:	8b 45 f4             	mov    -0xc(%ebp),%eax
  801456:	3b 45 10             	cmp    0x10(%ebp),%eax
  801459:	7d 19                	jge    801474 <strtol+0x125>
			break;
		s++, val = (val * base) + dig;
  80145b:	ff 45 08             	incl   0x8(%ebp)
  80145e:	8b 45 f8             	mov    -0x8(%ebp),%eax
  801461:	0f af 45 10          	imul   0x10(%ebp),%eax
  801465:	89 c2                	mov    %eax,%edx
  801467:	8b 45 f4             	mov    -0xc(%ebp),%eax
  80146a:	01 d0                	add    %edx,%eax
  80146c:	89 45 f8             	mov    %eax,-0x8(%ebp)
		// we don't properly detect overflow!
	}
  80146f:	e9 7b ff ff ff       	jmp    8013ef <strtol+0xa0>
		else if (*s >= 'A' && *s <= 'Z')
			dig = *s - 'A' + 10;
		else
			break;
		if (dig >= base)
			break;
  801474:	90                   	nop
		s++, val = (val * base) + dig;
		// we don't properly detect overflow!
	}

	if (endptr)
  801475:	83 7d 0c 00          	cmpl   $0x0,0xc(%ebp)
  801479:	74 08                	je     801483 <strtol+0x134>
		*endptr = (char *) s;
  80147b:	8b 45 0c             	mov    0xc(%ebp),%eax
  80147e:	8b 55 08             	mov    0x8(%ebp),%edx
  801481:	89 10                	mov    %edx,(%eax)
	return (neg ? -val : val);
  801483:	83 7d fc 00          	cmpl   $0x0,-0x4(%ebp)
  801487:	74 07                	je     801490 <strtol+0x141>
  801489:	8b 45 f8             	mov    -0x8(%ebp),%eax
  80148c:	f7 d8                	neg    %eax
  80148e:	eb 03                	jmp    801493 <strtol+0x144>
  801490:	8b 45 f8             	mov    -0x8(%ebp),%eax
}
  801493:	c9                   	leave  
  801494:	c3                   	ret    

00801495 <ltostr>:

void
ltostr(long value, char *str)
{
  801495:	55                   	push   %ebp
  801496:	89 e5                	mov    %esp,%ebp
  801498:	83 ec 20             	sub    $0x20,%esp
	int neg = 0;
  80149b:	c7 45 fc 00 00 00 00 	movl   $0x0,-0x4(%ebp)
	int s = 0 ;
  8014a2:	c7 45 f8 00 00 00 00 	movl   $0x0,-0x8(%ebp)

	// plus/minus sign
	if (value < 0)
  8014a9:	83 7d 08 00          	cmpl   $0x0,0x8(%ebp)
  8014ad:	79 13                	jns    8014c2 <ltostr+0x2d>
	{
		neg = 1;
  8014af:	c7 45 fc 01 00 00 00 	movl   $0x1,-0x4(%ebp)
		str[0] = '-';
  8014b6:	8b 45 0c             	mov    0xc(%ebp),%eax
  8014b9:	c6 00 2d             	movb   $0x2d,(%eax)
		value = value * -1 ;
  8014bc:	f7 5d 08             	negl   0x8(%ebp)
		s++ ;
  8014bf:	ff 45 f8             	incl   -0x8(%ebp)
	}
	do
	{
		int mod = value % 10 ;
  8014c2:	8b 45 08             	mov    0x8(%ebp),%eax
  8014c5:	b9 0a 00 00 00       	mov    $0xa,%ecx
  8014ca:	99                   	cltd   
  8014cb:	f7 f9                	idiv   %ecx
  8014cd:	89 55 ec             	mov    %edx,-0x14(%ebp)
		str[s++] = mod + '0' ;
  8014d0:	8b 45 f8             	mov    -0x8(%ebp),%eax
  8014d3:	8d 50 01             	lea    0x1(%eax),%edx
  8014d6:	89 55 f8             	mov    %edx,-0x8(%ebp)
  8014d9:	89 c2                	mov    %eax,%edx
  8014db:	8b 45 0c             	mov    0xc(%ebp),%eax
  8014de:	01 d0                	add    %edx,%eax
  8014e0:	8b 55 ec             	mov    -0x14(%ebp),%edx
  8014e3:	83 c2 30             	add    $0x30,%edx
  8014e6:	88 10                	mov    %dl,(%eax)
		value = value / 10 ;
  8014e8:	8b 4d 08             	mov    0x8(%ebp),%ecx
  8014eb:	b8 67 66 66 66       	mov    $0x66666667,%eax
  8014f0:	f7 e9                	imul   %ecx
  8014f2:	c1 fa 02             	sar    $0x2,%edx
  8014f5:	89 c8                	mov    %ecx,%eax
  8014f7:	c1 f8 1f             	sar    $0x1f,%eax
  8014fa:	29 c2                	sub    %eax,%edx
  8014fc:	89 d0                	mov    %edx,%eax
  8014fe:	89 45 08             	mov    %eax,0x8(%ebp)
	} while (value % 10 != 0);
  801501:	8b 4d 08             	mov    0x8(%ebp),%ecx
  801504:	b8 67 66 66 66       	mov    $0x66666667,%eax
  801509:	f7 e9                	imul   %ecx
  80150b:	c1 fa 02             	sar    $0x2,%edx
  80150e:	89 c8                	mov    %ecx,%eax
  801510:	c1 f8 1f             	sar    $0x1f,%eax
  801513:	29 c2                	sub    %eax,%edx
  801515:	89 d0                	mov    %edx,%eax
  801517:	c1 e0 02             	shl    $0x2,%eax
  80151a:	01 d0                	add    %edx,%eax
  80151c:	01 c0                	add    %eax,%eax
  80151e:	29 c1                	sub    %eax,%ecx
  801520:	89 ca                	mov    %ecx,%edx
  801522:	85 d2                	test   %edx,%edx
  801524:	75 9c                	jne    8014c2 <ltostr+0x2d>

	//reverse the string
	int start = 0 ;
  801526:	c7 45 f4 00 00 00 00 	movl   $0x0,-0xc(%ebp)
	int end = s-1 ;
  80152d:	8b 45 f8             	mov    -0x8(%ebp),%eax
  801530:	48                   	dec    %eax
  801531:	89 45 f0             	mov    %eax,-0x10(%ebp)
	if (neg)
  801534:	83 7d fc 00          	cmpl   $0x0,-0x4(%ebp)
  801538:	74 3d                	je     801577 <ltostr+0xe2>
		start = 1 ;
  80153a:	c7 45 f4 01 00 00 00 	movl   $0x1,-0xc(%ebp)
	while(start<end)
  801541:	eb 34                	jmp    801577 <ltostr+0xe2>
	{
		char tmp = str[start] ;
  801543:	8b 55 f4             	mov    -0xc(%ebp),%edx
  801546:	8b 45 0c             	mov    0xc(%ebp),%eax
  801549:	01 d0                	add    %edx,%eax
  80154b:	8a 00                	mov    (%eax),%al
  80154d:	88 45 eb             	mov    %al,-0x15(%ebp)
		str[start] = str[end] ;
  801550:	8b 55 f4             	mov    -0xc(%ebp),%edx
  801553:	8b 45 0c             	mov    0xc(%ebp),%eax
  801556:	01 c2                	add    %eax,%edx
  801558:	8b 4d f0             	mov    -0x10(%ebp),%ecx
  80155b:	8b 45 0c             	mov    0xc(%ebp),%eax
  80155e:	01 c8                	add    %ecx,%eax
  801560:	8a 00                	mov    (%eax),%al
  801562:	88 02                	mov    %al,(%edx)
		str[end] = tmp;
  801564:	8b 55 f0             	mov    -0x10(%ebp),%edx
  801567:	8b 45 0c             	mov    0xc(%ebp),%eax
  80156a:	01 c2                	add    %eax,%edx
  80156c:	8a 45 eb             	mov    -0x15(%ebp),%al
  80156f:	88 02                	mov    %al,(%edx)
		start++ ;
  801571:	ff 45 f4             	incl   -0xc(%ebp)
		end-- ;
  801574:	ff 4d f0             	decl   -0x10(%ebp)
	//reverse the string
	int start = 0 ;
	int end = s-1 ;
	if (neg)
		start = 1 ;
	while(start<end)
  801577:	8b 45 f4             	mov    -0xc(%ebp),%eax
  80157a:	3b 45 f0             	cmp    -0x10(%ebp),%eax
  80157d:	7c c4                	jl     801543 <ltostr+0xae>
		str[end] = tmp;
		start++ ;
		end-- ;
	}

	str[s] = 0 ;
  80157f:	8b 55 f8             	mov    -0x8(%ebp),%edx
  801582:	8b 45 0c             	mov    0xc(%ebp),%eax
  801585:	01 d0                	add    %edx,%eax
  801587:	c6 00 00             	movb   $0x0,(%eax)
	// we don't properly detect overflow!

}
  80158a:	90                   	nop
  80158b:	c9                   	leave  
  80158c:	c3                   	ret    

0080158d <strcconcat>:

void
strcconcat(const char *str1, const char *str2, char *final)
{
  80158d:	55                   	push   %ebp
  80158e:	89 e5                	mov    %esp,%ebp
  801590:	83 ec 10             	sub    $0x10,%esp
	int len1 = strlen(str1);
  801593:	ff 75 08             	pushl  0x8(%ebp)
  801596:	e8 54 fa ff ff       	call   800fef <strlen>
  80159b:	83 c4 04             	add    $0x4,%esp
  80159e:	89 45 f4             	mov    %eax,-0xc(%ebp)
	int len2 = strlen(str2);
  8015a1:	ff 75 0c             	pushl  0xc(%ebp)
  8015a4:	e8 46 fa ff ff       	call   800fef <strlen>
  8015a9:	83 c4 04             	add    $0x4,%esp
  8015ac:	89 45 f0             	mov    %eax,-0x10(%ebp)
	int s = 0 ;
  8015af:	c7 45 fc 00 00 00 00 	movl   $0x0,-0x4(%ebp)
	for (s=0 ; s < len1 ; s++)
  8015b6:	c7 45 fc 00 00 00 00 	movl   $0x0,-0x4(%ebp)
  8015bd:	eb 17                	jmp    8015d6 <strcconcat+0x49>
		final[s] = str1[s] ;
  8015bf:	8b 55 fc             	mov    -0x4(%ebp),%edx
  8015c2:	8b 45 10             	mov    0x10(%ebp),%eax
  8015c5:	01 c2                	add    %eax,%edx
  8015c7:	8b 4d fc             	mov    -0x4(%ebp),%ecx
  8015ca:	8b 45 08             	mov    0x8(%ebp),%eax
  8015cd:	01 c8                	add    %ecx,%eax
  8015cf:	8a 00                	mov    (%eax),%al
  8015d1:	88 02                	mov    %al,(%edx)
strcconcat(const char *str1, const char *str2, char *final)
{
	int len1 = strlen(str1);
	int len2 = strlen(str2);
	int s = 0 ;
	for (s=0 ; s < len1 ; s++)
  8015d3:	ff 45 fc             	incl   -0x4(%ebp)
  8015d6:	8b 45 fc             	mov    -0x4(%ebp),%eax
  8015d9:	3b 45 f4             	cmp    -0xc(%ebp),%eax
  8015dc:	7c e1                	jl     8015bf <strcconcat+0x32>
		final[s] = str1[s] ;

	int i = 0 ;
  8015de:	c7 45 f8 00 00 00 00 	movl   $0x0,-0x8(%ebp)
	for (i=0 ; i < len2 ; i++)
  8015e5:	c7 45 f8 00 00 00 00 	movl   $0x0,-0x8(%ebp)
  8015ec:	eb 1f                	jmp    80160d <strcconcat+0x80>
		final[s++] = str2[i] ;
  8015ee:	8b 45 fc             	mov    -0x4(%ebp),%eax
  8015f1:	8d 50 01             	lea    0x1(%eax),%edx
  8015f4:	89 55 fc             	mov    %edx,-0x4(%ebp)
  8015f7:	89 c2                	mov    %eax,%edx
  8015f9:	8b 45 10             	mov    0x10(%ebp),%eax
  8015fc:	01 c2                	add    %eax,%edx
  8015fe:	8b 4d f8             	mov    -0x8(%ebp),%ecx
  801601:	8b 45 0c             	mov    0xc(%ebp),%eax
  801604:	01 c8                	add    %ecx,%eax
  801606:	8a 00                	mov    (%eax),%al
  801608:	88 02                	mov    %al,(%edx)
	int s = 0 ;
	for (s=0 ; s < len1 ; s++)
		final[s] = str1[s] ;

	int i = 0 ;
	for (i=0 ; i < len2 ; i++)
  80160a:	ff 45 f8             	incl   -0x8(%ebp)
  80160d:	8b 45 f8             	mov    -0x8(%ebp),%eax
  801610:	3b 45 f0             	cmp    -0x10(%ebp),%eax
  801613:	7c d9                	jl     8015ee <strcconcat+0x61>
		final[s++] = str2[i] ;

	final[s] = 0;
  801615:	8b 55 fc             	mov    -0x4(%ebp),%edx
  801618:	8b 45 10             	mov    0x10(%ebp),%eax
  80161b:	01 d0                	add    %edx,%eax
  80161d:	c6 00 00             	movb   $0x0,(%eax)
}
  801620:	90                   	nop
  801621:	c9                   	leave  
  801622:	c3                   	ret    

00801623 <strsplit>:
int strsplit(char *string, char *SPLIT_CHARS, char **argv, int * argc)
{
  801623:	55                   	push   %ebp
  801624:	89 e5                	mov    %esp,%ebp
	// Parse the command string into splitchars-separated arguments
	*argc = 0;
  801626:	8b 45 14             	mov    0x14(%ebp),%eax
  801629:	c7 00 00 00 00 00    	movl   $0x0,(%eax)
	(argv)[*argc] = 0;
  80162f:	8b 45 14             	mov    0x14(%ebp),%eax
  801632:	8b 00                	mov    (%eax),%eax
  801634:	8d 14 85 00 00 00 00 	lea    0x0(,%eax,4),%edx
  80163b:	8b 45 10             	mov    0x10(%ebp),%eax
  80163e:	01 d0                	add    %edx,%eax
  801640:	c7 00 00 00 00 00    	movl   $0x0,(%eax)
	while (1)
	{
		// trim splitchars
		while (*string && strchr(SPLIT_CHARS, *string))
  801646:	eb 0c                	jmp    801654 <strsplit+0x31>
			*string++ = 0;
  801648:	8b 45 08             	mov    0x8(%ebp),%eax
  80164b:	8d 50 01             	lea    0x1(%eax),%edx
  80164e:	89 55 08             	mov    %edx,0x8(%ebp)
  801651:	c6 00 00             	movb   $0x0,(%eax)
	*argc = 0;
	(argv)[*argc] = 0;
	while (1)
	{
		// trim splitchars
		while (*string && strchr(SPLIT_CHARS, *string))
  801654:	8b 45 08             	mov    0x8(%ebp),%eax
  801657:	8a 00                	mov    (%eax),%al
  801659:	84 c0                	test   %al,%al
  80165b:	74 18                	je     801675 <strsplit+0x52>
  80165d:	8b 45 08             	mov    0x8(%ebp),%eax
  801660:	8a 00                	mov    (%eax),%al
  801662:	0f be c0             	movsbl %al,%eax
  801665:	50                   	push   %eax
  801666:	ff 75 0c             	pushl  0xc(%ebp)
  801669:	e8 13 fb ff ff       	call   801181 <strchr>
  80166e:	83 c4 08             	add    $0x8,%esp
  801671:	85 c0                	test   %eax,%eax
  801673:	75 d3                	jne    801648 <strsplit+0x25>
			*string++ = 0;

		//if the command string is finished, then break the loop
		if (*string == 0)
  801675:	8b 45 08             	mov    0x8(%ebp),%eax
  801678:	8a 00                	mov    (%eax),%al
  80167a:	84 c0                	test   %al,%al
  80167c:	74 5a                	je     8016d8 <strsplit+0xb5>
			break;

		//check current number of arguments
		if (*argc == MAX_ARGUMENTS-1)
  80167e:	8b 45 14             	mov    0x14(%ebp),%eax
  801681:	8b 00                	mov    (%eax),%eax
  801683:	83 f8 0f             	cmp    $0xf,%eax
  801686:	75 07                	jne    80168f <strsplit+0x6c>
		{
			return 0;
  801688:	b8 00 00 00 00       	mov    $0x0,%eax
  80168d:	eb 66                	jmp    8016f5 <strsplit+0xd2>
		}

		// save the previous argument and scan past next arg
		(argv)[(*argc)++] = string;
  80168f:	8b 45 14             	mov    0x14(%ebp),%eax
  801692:	8b 00                	mov    (%eax),%eax
  801694:	8d 48 01             	lea    0x1(%eax),%ecx
  801697:	8b 55 14             	mov    0x14(%ebp),%edx
  80169a:	89 0a                	mov    %ecx,(%edx)
  80169c:	8d 14 85 00 00 00 00 	lea    0x0(,%eax,4),%edx
  8016a3:	8b 45 10             	mov    0x10(%ebp),%eax
  8016a6:	01 c2                	add    %eax,%edx
  8016a8:	8b 45 08             	mov    0x8(%ebp),%eax
  8016ab:	89 02                	mov    %eax,(%edx)
		while (*string && !strchr(SPLIT_CHARS, *string))
  8016ad:	eb 03                	jmp    8016b2 <strsplit+0x8f>
			string++;
  8016af:	ff 45 08             	incl   0x8(%ebp)
			return 0;
		}

		// save the previous argument and scan past next arg
		(argv)[(*argc)++] = string;
		while (*string && !strchr(SPLIT_CHARS, *string))
  8016b2:	8b 45 08             	mov    0x8(%ebp),%eax
  8016b5:	8a 00                	mov    (%eax),%al
  8016b7:	84 c0                	test   %al,%al
  8016b9:	74 8b                	je     801646 <strsplit+0x23>
  8016bb:	8b 45 08             	mov    0x8(%ebp),%eax
  8016be:	8a 00                	mov    (%eax),%al
  8016c0:	0f be c0             	movsbl %al,%eax
  8016c3:	50                   	push   %eax
  8016c4:	ff 75 0c             	pushl  0xc(%ebp)
  8016c7:	e8 b5 fa ff ff       	call   801181 <strchr>
  8016cc:	83 c4 08             	add    $0x8,%esp
  8016cf:	85 c0                	test   %eax,%eax
  8016d1:	74 dc                	je     8016af <strsplit+0x8c>
			string++;
	}
  8016d3:	e9 6e ff ff ff       	jmp    801646 <strsplit+0x23>
		while (*string && strchr(SPLIT_CHARS, *string))
			*string++ = 0;

		//if the command string is finished, then break the loop
		if (*string == 0)
			break;
  8016d8:	90                   	nop
		// save the previous argument and scan past next arg
		(argv)[(*argc)++] = string;
		while (*string && !strchr(SPLIT_CHARS, *string))
			string++;
	}
	(argv)[*argc] = 0;
  8016d9:	8b 45 14             	mov    0x14(%ebp),%eax
  8016dc:	8b 00                	mov    (%eax),%eax
  8016de:	8d 14 85 00 00 00 00 	lea    0x0(,%eax,4),%edx
  8016e5:	8b 45 10             	mov    0x10(%ebp),%eax
  8016e8:	01 d0                	add    %edx,%eax
  8016ea:	c7 00 00 00 00 00    	movl   $0x0,(%eax)
	return 1 ;
  8016f0:	b8 01 00 00 00       	mov    $0x1,%eax
}
  8016f5:	c9                   	leave  
  8016f6:	c3                   	ret    

008016f7 <str2lower>:


/*2024*/
char* str2lower(char *dst, const char *src)
{
  8016f7:	55                   	push   %ebp
  8016f8:	89 e5                	mov    %esp,%ebp
  8016fa:	83 ec 10             	sub    $0x10,%esp
	//TODO: [PROJECT'23.MS1 - #1] [1] PLAY WITH CODE! - str2lower
	//Comment the following line before start coding...
	//panic("process_command is not implemented yet");

	for(int i =0; i<strlen(src); i++)
  8016fd:	c7 45 fc 00 00 00 00 	movl   $0x0,-0x4(%ebp)
  801704:	eb 4c                	jmp    801752 <str2lower+0x5b>
	{
		if(src[i]>= 65 && src[i]<=90)
  801706:	8b 55 fc             	mov    -0x4(%ebp),%edx
  801709:	8b 45 0c             	mov    0xc(%ebp),%eax
  80170c:	01 d0                	add    %edx,%eax
  80170e:	8a 00                	mov    (%eax),%al
  801710:	3c 40                	cmp    $0x40,%al
  801712:	7e 27                	jle    80173b <str2lower+0x44>
  801714:	8b 55 fc             	mov    -0x4(%ebp),%edx
  801717:	8b 45 0c             	mov    0xc(%ebp),%eax
  80171a:	01 d0                	add    %edx,%eax
  80171c:	8a 00                	mov    (%eax),%al
  80171e:	3c 5a                	cmp    $0x5a,%al
  801720:	7f 19                	jg     80173b <str2lower+0x44>
		{
			dst[i]=src[i]+32;
  801722:	8b 55 fc             	mov    -0x4(%ebp),%edx
  801725:	8b 45 08             	mov    0x8(%ebp),%eax
  801728:	01 d0                	add    %edx,%eax
  80172a:	8b 4d fc             	mov    -0x4(%ebp),%ecx
  80172d:	8b 55 0c             	mov    0xc(%ebp),%edx
  801730:	01 ca                	add    %ecx,%edx
  801732:	8a 12                	mov    (%edx),%dl
  801734:	83 c2 20             	add    $0x20,%edx
  801737:	88 10                	mov    %dl,(%eax)
  801739:	eb 14                	jmp    80174f <str2lower+0x58>
		}
		else
		{
			dst[i]=src[i];
  80173b:	8b 55 fc             	mov    -0x4(%ebp),%edx
  80173e:	8b 45 08             	mov    0x8(%ebp),%eax
  801741:	01 c2                	add    %eax,%edx
  801743:	8b 4d fc             	mov    -0x4(%ebp),%ecx
  801746:	8b 45 0c             	mov    0xc(%ebp),%eax
  801749:	01 c8                	add    %ecx,%eax
  80174b:	8a 00                	mov    (%eax),%al
  80174d:	88 02                	mov    %al,(%edx)
{
	//TODO: [PROJECT'23.MS1 - #1] [1] PLAY WITH CODE! - str2lower
	//Comment the following line before start coding...
	//panic("process_command is not implemented yet");

	for(int i =0; i<strlen(src); i++)
  80174f:	ff 45 fc             	incl   -0x4(%ebp)
  801752:	ff 75 0c             	pushl  0xc(%ebp)
  801755:	e8 95 f8 ff ff       	call   800fef <strlen>
  80175a:	83 c4 04             	add    $0x4,%esp
  80175d:	3b 45 fc             	cmp    -0x4(%ebp),%eax
  801760:	7f a4                	jg     801706 <str2lower+0xf>
		{
			dst[i]=src[i];
		}

	}
	return dst;
  801762:	8b 45 08             	mov    0x8(%ebp),%eax
}
  801765:	c9                   	leave  
  801766:	c3                   	ret    

00801767 <InitializeUHeap>:
//==================================================================================//
//============================== GIVEN FUNCTIONS ===================================//
//==================================================================================//

int FirstTimeFlag = 1;
void InitializeUHeap() {
  801767:	55                   	push   %ebp
  801768:	89 e5                	mov    %esp,%ebp
	if (FirstTimeFlag) {
  80176a:	a1 04 50 80 00       	mov    0x805004,%eax
  80176f:	85 c0                	test   %eax,%eax
  801771:	74 0a                	je     80177d <InitializeUHeap+0x16>
#if UHP_USE_BUDDY
		initialize_buddy();
		cprintf("BUDDY SYSTEM IS INITIALIZED\n");
#endif
		FirstTimeFlag = 0;
  801773:	c7 05 04 50 80 00 00 	movl   $0x0,0x805004
  80177a:	00 00 00 
	}
}
  80177d:	90                   	nop
  80177e:	5d                   	pop    %ebp
  80177f:	c3                   	ret    

00801780 <sbrk>:

//=============================================
// [1] CHANGE THE BREAK LIMIT OF THE USER HEAP:
//=============================================
/*2023*/
void* sbrk(int increment) {
  801780:	55                   	push   %ebp
  801781:	89 e5                	mov    %esp,%ebp
  801783:	83 ec 08             	sub    $0x8,%esp
	return (void*) sys_sbrk(increment);
  801786:	83 ec 0c             	sub    $0xc,%esp
  801789:	ff 75 08             	pushl  0x8(%ebp)
  80178c:	e8 7e 09 00 00       	call   80210f <sys_sbrk>
  801791:	83 c4 10             	add    $0x10,%esp
}
  801794:	c9                   	leave  
  801795:	c3                   	ret    

00801796 <malloc>:
uint32 user_free_space;
uint32 block_pages;
int temp = 0;

void* malloc(uint32 size)
{
  801796:	55                   	push   %ebp
  801797:	89 e5                	mov    %esp,%ebp
  801799:	83 ec 38             	sub    $0x38,%esp
	//==============================================================
	//DON'T CHANGE THIS CODE========================================
	InitializeUHeap();
  80179c:	e8 c6 ff ff ff       	call   801767 <InitializeUHeap>
	if (size == 0)
  8017a1:	83 7d 08 00          	cmpl   $0x0,0x8(%ebp)
  8017a5:	75 0a                	jne    8017b1 <malloc+0x1b>
		return NULL;
  8017a7:	b8 00 00 00 00       	mov    $0x0,%eax
  8017ac:	e9 3f 01 00 00       	jmp    8018f0 <malloc+0x15a>
	//==============================================================
	//TODO: [PROJECT'23.MS2 - #09] [2] USER HEAP - malloc() [User Side]

	uint32 hard_limit=sys_get_hard_limit();
  8017b1:	e8 ac 09 00 00       	call   802162 <sys_get_hard_limit>
  8017b6:	89 45 e0             	mov    %eax,-0x20(%ebp)
	uint32 start_add;
	uint32 start_index;
	uint32 counter = 0;
  8017b9:	c7 45 ec 00 00 00 00 	movl   $0x0,-0x14(%ebp)
	uint32 alloc_start = (((hard_limit + PAGE_SIZE) - USER_HEAP_START))/ PAGE_SIZE;
  8017c0:	8b 45 e0             	mov    -0x20(%ebp),%eax
  8017c3:	2d 00 f0 ff 7f       	sub    $0x7ffff000,%eax
  8017c8:	c1 e8 0c             	shr    $0xc,%eax
  8017cb:	89 45 dc             	mov    %eax,-0x24(%ebp)
	uint32 roundedUp_size = ROUNDUP(size, PAGE_SIZE);
  8017ce:	c7 45 d8 00 10 00 00 	movl   $0x1000,-0x28(%ebp)
  8017d5:	8b 55 08             	mov    0x8(%ebp),%edx
  8017d8:	8b 45 d8             	mov    -0x28(%ebp),%eax
  8017db:	01 d0                	add    %edx,%eax
  8017dd:	48                   	dec    %eax
  8017de:	89 45 d4             	mov    %eax,-0x2c(%ebp)
  8017e1:	8b 45 d4             	mov    -0x2c(%ebp),%eax
  8017e4:	ba 00 00 00 00       	mov    $0x0,%edx
  8017e9:	f7 75 d8             	divl   -0x28(%ebp)
  8017ec:	8b 45 d4             	mov    -0x2c(%ebp),%eax
  8017ef:	29 d0                	sub    %edx,%eax
  8017f1:	89 45 d0             	mov    %eax,-0x30(%ebp)
	uint32 number_of_pages = roundedUp_size / PAGE_SIZE;
  8017f4:	8b 45 d0             	mov    -0x30(%ebp),%eax
  8017f7:	c1 e8 0c             	shr    $0xc,%eax
  8017fa:	89 45 cc             	mov    %eax,-0x34(%ebp)

	if (size == 0)
  8017fd:	83 7d 08 00          	cmpl   $0x0,0x8(%ebp)
  801801:	75 0a                	jne    80180d <malloc+0x77>
		return NULL;
  801803:	b8 00 00 00 00       	mov    $0x0,%eax
  801808:	e9 e3 00 00 00       	jmp    8018f0 <malloc+0x15a>
	block_pages = (hard_limit- USER_HEAP_START) / PAGE_SIZE;
  80180d:	8b 45 e0             	mov    -0x20(%ebp),%eax
  801810:	05 00 00 00 80       	add    $0x80000000,%eax
  801815:	c1 e8 0c             	shr    $0xc,%eax
  801818:	a3 20 51 80 00       	mov    %eax,0x805120

	if (size <= DYN_ALLOC_MAX_BLOCK_SIZE)
  80181d:	81 7d 08 00 08 00 00 	cmpl   $0x800,0x8(%ebp)
  801824:	77 19                	ja     80183f <malloc+0xa9>
	{
		uint32 add= (uint32)alloc_block_FF(size);
  801826:	83 ec 0c             	sub    $0xc,%esp
  801829:	ff 75 08             	pushl  0x8(%ebp)
  80182c:	e8 60 0b 00 00       	call   802391 <alloc_block_FF>
  801831:	83 c4 10             	add    $0x10,%esp
  801834:	89 45 c8             	mov    %eax,-0x38(%ebp)
	//	sys_allocate_user_mem(add, roundedUp_size);
		return (void*)add;
  801837:	8b 45 c8             	mov    -0x38(%ebp),%eax
  80183a:	e9 b1 00 00 00       	jmp    8018f0 <malloc+0x15a>
	}

	else
	{
		for (uint32 i = alloc_start; i < NUM_OF_UHEAP_PAGES; i++)
  80183f:	8b 45 dc             	mov    -0x24(%ebp),%eax
  801842:	89 45 e8             	mov    %eax,-0x18(%ebp)
  801845:	eb 4d                	jmp    801894 <malloc+0xfe>
		{
			if (userArr[i].is_allocated == 0)
  801847:	8b 45 e8             	mov    -0x18(%ebp),%eax
  80184a:	8a 04 c5 40 51 80 00 	mov    0x805140(,%eax,8),%al
  801851:	84 c0                	test   %al,%al
  801853:	75 27                	jne    80187c <malloc+0xe6>
			{
				counter++;
  801855:	ff 45 ec             	incl   -0x14(%ebp)

				if (counter == 1)
  801858:	83 7d ec 01          	cmpl   $0x1,-0x14(%ebp)
  80185c:	75 14                	jne    801872 <malloc+0xdc>
				{
					start_add = (i*PAGE_SIZE)+USER_HEAP_START;
  80185e:	8b 45 e8             	mov    -0x18(%ebp),%eax
  801861:	05 00 00 08 00       	add    $0x80000,%eax
  801866:	c1 e0 0c             	shl    $0xc,%eax
  801869:	89 45 f4             	mov    %eax,-0xc(%ebp)
					start_index=i;
  80186c:	8b 45 e8             	mov    -0x18(%ebp),%eax
  80186f:	89 45 f0             	mov    %eax,-0x10(%ebp)
				}
				if (counter == number_of_pages)
  801872:	8b 45 ec             	mov    -0x14(%ebp),%eax
  801875:	3b 45 cc             	cmp    -0x34(%ebp),%eax
  801878:	75 17                	jne    801891 <malloc+0xfb>
				{
					break;
  80187a:	eb 21                	jmp    80189d <malloc+0x107>
				}
			}
			else if (userArr[i].is_allocated == 1)
  80187c:	8b 45 e8             	mov    -0x18(%ebp),%eax
  80187f:	8a 04 c5 40 51 80 00 	mov    0x805140(,%eax,8),%al
  801886:	3c 01                	cmp    $0x1,%al
  801888:	75 07                	jne    801891 <malloc+0xfb>
			{
				counter = 0;
  80188a:	c7 45 ec 00 00 00 00 	movl   $0x0,-0x14(%ebp)
		return (void*)add;
	}

	else
	{
		for (uint32 i = alloc_start; i < NUM_OF_UHEAP_PAGES; i++)
  801891:	ff 45 e8             	incl   -0x18(%ebp)
  801894:	81 7d e8 ff ff 01 00 	cmpl   $0x1ffff,-0x18(%ebp)
  80189b:	76 aa                	jbe    801847 <malloc+0xb1>
			else if (userArr[i].is_allocated == 1)
			{
				counter = 0;
			}
		}
		if (counter == number_of_pages)
  80189d:	8b 45 ec             	mov    -0x14(%ebp),%eax
  8018a0:	3b 45 cc             	cmp    -0x34(%ebp),%eax
  8018a3:	75 46                	jne    8018eb <malloc+0x155>
		{
			sys_allocate_user_mem(start_add,roundedUp_size);
  8018a5:	83 ec 08             	sub    $0x8,%esp
  8018a8:	ff 75 d0             	pushl  -0x30(%ebp)
  8018ab:	ff 75 f4             	pushl  -0xc(%ebp)
  8018ae:	e8 93 08 00 00       	call   802146 <sys_allocate_user_mem>
  8018b3:	83 c4 10             	add    $0x10,%esp
	     	//update array
			userArr[start_index].Size=roundedUp_size;
  8018b6:	8b 45 f0             	mov    -0x10(%ebp),%eax
  8018b9:	8b 55 d0             	mov    -0x30(%ebp),%edx
  8018bc:	89 14 c5 44 51 80 00 	mov    %edx,0x805144(,%eax,8)
			for (uint32 i = start_index; i <number_of_pages+start_index ; i++)
  8018c3:	8b 45 f0             	mov    -0x10(%ebp),%eax
  8018c6:	89 45 e4             	mov    %eax,-0x1c(%ebp)
  8018c9:	eb 0e                	jmp    8018d9 <malloc+0x143>
			{
				userArr[i].is_allocated=1;
  8018cb:	8b 45 e4             	mov    -0x1c(%ebp),%eax
  8018ce:	c6 04 c5 40 51 80 00 	movb   $0x1,0x805140(,%eax,8)
  8018d5:	01 
		if (counter == number_of_pages)
		{
			sys_allocate_user_mem(start_add,roundedUp_size);
	     	//update array
			userArr[start_index].Size=roundedUp_size;
			for (uint32 i = start_index; i <number_of_pages+start_index ; i++)
  8018d6:	ff 45 e4             	incl   -0x1c(%ebp)
  8018d9:	8b 55 cc             	mov    -0x34(%ebp),%edx
  8018dc:	8b 45 f0             	mov    -0x10(%ebp),%eax
  8018df:	01 d0                	add    %edx,%eax
  8018e1:	3b 45 e4             	cmp    -0x1c(%ebp),%eax
  8018e4:	77 e5                	ja     8018cb <malloc+0x135>
			{
				userArr[i].is_allocated=1;
			}

			return (void*)start_add;
  8018e6:	8b 45 f4             	mov    -0xc(%ebp),%eax
  8018e9:	eb 05                	jmp    8018f0 <malloc+0x15a>
		}
	}

	return NULL;
  8018eb:	b8 00 00 00 00       	mov    $0x0,%eax

}
  8018f0:	c9                   	leave  
  8018f1:	c3                   	ret    

008018f2 <free>:
//=================================
// [3] FREE SPACE FROM USER HEAP:
//=================================
void free(void* virtual_address)
{
  8018f2:	55                   	push   %ebp
  8018f3:	89 e5                	mov    %esp,%ebp
  8018f5:	83 ec 28             	sub    $0x28,%esp
	//TODO: [PROJECT'23.MS2 - #15] [2] USER HEAP - free() [User Side]

	uint32 hard_limit=sys_get_hard_limit();
  8018f8:	e8 65 08 00 00       	call   802162 <sys_get_hard_limit>
  8018fd:	89 45 f0             	mov    %eax,-0x10(%ebp)
    uint32 va_cast=(uint32)virtual_address;
  801900:	8b 45 08             	mov    0x8(%ebp),%eax
  801903:	89 45 ec             	mov    %eax,-0x14(%ebp)
    uint32 sz;
    uint32 numPages;
    uint32 index;
    if(virtual_address==NULL)
  801906:	83 7d 08 00          	cmpl   $0x0,0x8(%ebp)
  80190a:	0f 84 c1 00 00 00    	je     8019d1 <free+0xdf>
    	  return;

    if(va_cast >= USER_HEAP_START && va_cast < hard_limit) //block  allocator start-limit
  801910:	8b 45 ec             	mov    -0x14(%ebp),%eax
  801913:	85 c0                	test   %eax,%eax
  801915:	79 1b                	jns    801932 <free+0x40>
  801917:	8b 45 ec             	mov    -0x14(%ebp),%eax
  80191a:	3b 45 f0             	cmp    -0x10(%ebp),%eax
  80191d:	73 13                	jae    801932 <free+0x40>
    {
        free_block(virtual_address);
  80191f:	83 ec 0c             	sub    $0xc,%esp
  801922:	ff 75 08             	pushl  0x8(%ebp)
  801925:	e8 34 10 00 00       	call   80295e <free_block>
  80192a:	83 c4 10             	add    $0x10,%esp
    	return;
  80192d:	e9 a6 00 00 00       	jmp    8019d8 <free+0xe6>
    }

    else if(va_cast >= (hard_limit+PAGE_SIZE) && va_cast < USER_HEAP_MAX) //page allocator  limit+page - user max
  801932:	8b 45 f0             	mov    -0x10(%ebp),%eax
  801935:	05 00 10 00 00       	add    $0x1000,%eax
  80193a:	3b 45 ec             	cmp    -0x14(%ebp),%eax
  80193d:	0f 87 91 00 00 00    	ja     8019d4 <free+0xe2>
  801943:	81 7d ec ff ff ff 9f 	cmpl   $0x9fffffff,-0x14(%ebp)
  80194a:	0f 87 84 00 00 00    	ja     8019d4 <free+0xe2>
    {
    	  va_cast=ROUNDDOWN(va_cast,PAGE_SIZE);
  801950:	8b 45 ec             	mov    -0x14(%ebp),%eax
  801953:	89 45 e8             	mov    %eax,-0x18(%ebp)
  801956:	8b 45 e8             	mov    -0x18(%ebp),%eax
  801959:	25 00 f0 ff ff       	and    $0xfffff000,%eax
  80195e:	89 45 ec             	mov    %eax,-0x14(%ebp)
    	  uint32 index=(va_cast-USER_HEAP_START)/PAGE_SIZE;
  801961:	8b 45 ec             	mov    -0x14(%ebp),%eax
  801964:	05 00 00 00 80       	add    $0x80000000,%eax
  801969:	c1 e8 0c             	shr    $0xc,%eax
  80196c:	89 45 e4             	mov    %eax,-0x1c(%ebp)
    	  sz =userArr[index].Size;
  80196f:	8b 45 e4             	mov    -0x1c(%ebp),%eax
  801972:	8b 04 c5 44 51 80 00 	mov    0x805144(,%eax,8),%eax
  801979:	89 45 e0             	mov    %eax,-0x20(%ebp)

    if (sz==0)
  80197c:	83 7d e0 00          	cmpl   $0x0,-0x20(%ebp)
  801980:	74 55                	je     8019d7 <free+0xe5>
     {
    	return;
     }

	numPages=sz/PAGE_SIZE; //no of pages to deallocate
  801982:	8b 45 e0             	mov    -0x20(%ebp),%eax
  801985:	c1 e8 0c             	shr    $0xc,%eax
  801988:	89 45 dc             	mov    %eax,-0x24(%ebp)

	//edit array
	userArr[index].Size=0;
  80198b:	8b 45 e4             	mov    -0x1c(%ebp),%eax
  80198e:	c7 04 c5 44 51 80 00 	movl   $0x0,0x805144(,%eax,8)
  801995:	00 00 00 00 
	for(int i=index;i<numPages+index;i++)
  801999:	8b 45 e4             	mov    -0x1c(%ebp),%eax
  80199c:	89 45 f4             	mov    %eax,-0xc(%ebp)
  80199f:	eb 0e                	jmp    8019af <free+0xbd>
	{
		userArr[i].is_allocated=0;
  8019a1:	8b 45 f4             	mov    -0xc(%ebp),%eax
  8019a4:	c6 04 c5 40 51 80 00 	movb   $0x0,0x805140(,%eax,8)
  8019ab:	00 

	numPages=sz/PAGE_SIZE; //no of pages to deallocate

	//edit array
	userArr[index].Size=0;
	for(int i=index;i<numPages+index;i++)
  8019ac:	ff 45 f4             	incl   -0xc(%ebp)
  8019af:	8b 55 dc             	mov    -0x24(%ebp),%edx
  8019b2:	8b 45 e4             	mov    -0x1c(%ebp),%eax
  8019b5:	01 c2                	add    %eax,%edx
  8019b7:	8b 45 f4             	mov    -0xc(%ebp),%eax
  8019ba:	39 c2                	cmp    %eax,%edx
  8019bc:	77 e3                	ja     8019a1 <free+0xaf>
	{
		userArr[i].is_allocated=0;
	}

	sys_free_user_mem(va_cast,sz);
  8019be:	83 ec 08             	sub    $0x8,%esp
  8019c1:	ff 75 e0             	pushl  -0x20(%ebp)
  8019c4:	ff 75 ec             	pushl  -0x14(%ebp)
  8019c7:	e8 5e 07 00 00       	call   80212a <sys_free_user_mem>
  8019cc:	83 c4 10             	add    $0x10,%esp
        free_block(virtual_address);
    	return;
    }

    else if(va_cast >= (hard_limit+PAGE_SIZE) && va_cast < USER_HEAP_MAX) //page allocator  limit+page - user max
    {
  8019cf:	eb 07                	jmp    8019d8 <free+0xe6>
    uint32 va_cast=(uint32)virtual_address;
    uint32 sz;
    uint32 numPages;
    uint32 index;
    if(virtual_address==NULL)
    	  return;
  8019d1:	90                   	nop
  8019d2:	eb 04                	jmp    8019d8 <free+0xe6>
	sys_free_user_mem(va_cast,sz);
    }

    else
     {
    	return;
  8019d4:	90                   	nop
  8019d5:	eb 01                	jmp    8019d8 <free+0xe6>
    	  uint32 index=(va_cast-USER_HEAP_START)/PAGE_SIZE;
    	  sz =userArr[index].Size;

    if (sz==0)
     {
    	return;
  8019d7:	90                   	nop
    else
     {
    	return;
      }

}
  8019d8:	c9                   	leave  
  8019d9:	c3                   	ret    

008019da <smalloc>:
//=================================
// [4] ALLOCATE SHARED VARIABLE:
//=================================
void* smalloc(char *sharedVarName, uint32 size, uint8 isWritable) {
  8019da:	55                   	push   %ebp
  8019db:	89 e5                	mov    %esp,%ebp
  8019dd:	83 ec 18             	sub    $0x18,%esp
  8019e0:	8b 45 10             	mov    0x10(%ebp),%eax
  8019e3:	88 45 f4             	mov    %al,-0xc(%ebp)
	//==============================================================
	//DON'T CHANGE THIS CODE========================================
	InitializeUHeap();
  8019e6:	e8 7c fd ff ff       	call   801767 <InitializeUHeap>
	if (size == 0)
  8019eb:	83 7d 0c 00          	cmpl   $0x0,0xc(%ebp)
  8019ef:	75 07                	jne    8019f8 <smalloc+0x1e>
		return NULL;
  8019f1:	b8 00 00 00 00       	mov    $0x0,%eax
  8019f6:	eb 17                	jmp    801a0f <smalloc+0x35>
	//==============================================================
	panic("smalloc() is not implemented yet...!!");
  8019f8:	83 ec 04             	sub    $0x4,%esp
  8019fb:	68 10 42 80 00       	push   $0x804210
  801a00:	68 ad 00 00 00       	push   $0xad
  801a05:	68 36 42 80 00       	push   $0x804236
  801a0a:	e8 0a 19 00 00       	call   803319 <_panic>
	return NULL;
}
  801a0f:	c9                   	leave  
  801a10:	c3                   	ret    

00801a11 <sget>:

//========================================
// [5] SHARE ON ALLOCATED SHARED VARIABLE:
//========================================
void* sget(int32 ownerEnvID, char *sharedVarName) {
  801a11:	55                   	push   %ebp
  801a12:	89 e5                	mov    %esp,%ebp
  801a14:	83 ec 08             	sub    $0x8,%esp
	//==============================================================
	//DON'T CHANGE THIS CODE========================================
	InitializeUHeap();
  801a17:	e8 4b fd ff ff       	call   801767 <InitializeUHeap>
	//==============================================================
	// Write your code here, remove the panic and write your code
	panic("sget() is not implemented yet...!!");
  801a1c:	83 ec 04             	sub    $0x4,%esp
  801a1f:	68 44 42 80 00       	push   $0x804244
  801a24:	68 ba 00 00 00       	push   $0xba
  801a29:	68 36 42 80 00       	push   $0x804236
  801a2e:	e8 e6 18 00 00       	call   803319 <_panic>

00801a33 <realloc>:

//  Hint: you may need to use the sys_move_user_mem(...)
//		which switches to the kernel mode, calls move_user_mem(...)
//		in "kern/mem/chunk_operations.c", then switch back to the user mode here
//	the move_user_mem() function is empty, make sure to implement it.
void *realloc(void *virtual_address, uint32 new_size) {
  801a33:	55                   	push   %ebp
  801a34:	89 e5                	mov    %esp,%ebp
  801a36:	83 ec 08             	sub    $0x8,%esp
	//==============================================================
	//DON'T CHANGE THIS CODE========================================
	InitializeUHeap();
  801a39:	e8 29 fd ff ff       	call   801767 <InitializeUHeap>
	//==============================================================

	// Write your code here, remove the panic and write your code
	panic("realloc() is not implemented yet...!!");
  801a3e:	83 ec 04             	sub    $0x4,%esp
  801a41:	68 68 42 80 00       	push   $0x804268
  801a46:	68 d8 00 00 00       	push   $0xd8
  801a4b:	68 36 42 80 00       	push   $0x804236
  801a50:	e8 c4 18 00 00       	call   803319 <_panic>

00801a55 <sfree>:
//
//	use sys_freeSharedObject(...); which switches to the kernel mode,
//	calls freeSharedObject(...) in "shared_memory_manager.c", then switch back to the user mode here
//	the freeSharedObject() function is empty, make sure to implement it.

void sfree(void* virtual_address) {
  801a55:	55                   	push   %ebp
  801a56:	89 e5                	mov    %esp,%ebp
  801a58:	83 ec 08             	sub    $0x8,%esp
	// Write your code here, remove the panic and write your code
	panic("sfree() is not implemented yet...!!");
  801a5b:	83 ec 04             	sub    $0x4,%esp
  801a5e:	68 90 42 80 00       	push   $0x804290
  801a63:	68 ea 00 00 00       	push   $0xea
  801a68:	68 36 42 80 00       	push   $0x804236
  801a6d:	e8 a7 18 00 00       	call   803319 <_panic>

00801a72 <expand>:

//==================================================================================//
//========================== MODIFICATION FUNCTIONS ================================//
//==================================================================================//

void expand(uint32 newSize) {
  801a72:	55                   	push   %ebp
  801a73:	89 e5                	mov    %esp,%ebp
  801a75:	83 ec 08             	sub    $0x8,%esp
	panic("Not Implemented");
  801a78:	83 ec 04             	sub    $0x4,%esp
  801a7b:	68 b4 42 80 00       	push   $0x8042b4
  801a80:	68 f2 00 00 00       	push   $0xf2
  801a85:	68 36 42 80 00       	push   $0x804236
  801a8a:	e8 8a 18 00 00       	call   803319 <_panic>

00801a8f <shrink>:

}
void shrink(uint32 newSize) {
  801a8f:	55                   	push   %ebp
  801a90:	89 e5                	mov    %esp,%ebp
  801a92:	83 ec 08             	sub    $0x8,%esp
	panic("Not Implemented");
  801a95:	83 ec 04             	sub    $0x4,%esp
  801a98:	68 b4 42 80 00       	push   $0x8042b4
  801a9d:	68 f6 00 00 00       	push   $0xf6
  801aa2:	68 36 42 80 00       	push   $0x804236
  801aa7:	e8 6d 18 00 00       	call   803319 <_panic>

00801aac <freeHeap>:

}
void freeHeap(void* virtual_address) {
  801aac:	55                   	push   %ebp
  801aad:	89 e5                	mov    %esp,%ebp
  801aaf:	83 ec 08             	sub    $0x8,%esp
	panic("Not Implemented");
  801ab2:	83 ec 04             	sub    $0x4,%esp
  801ab5:	68 b4 42 80 00       	push   $0x8042b4
  801aba:	68 fa 00 00 00       	push   $0xfa
  801abf:	68 36 42 80 00       	push   $0x804236
  801ac4:	e8 50 18 00 00       	call   803319 <_panic>

00801ac9 <syscall>:
#include <inc/syscall.h>
#include <inc/lib.h>

static inline uint32
syscall(int num, uint32 a1, uint32 a2, uint32 a3, uint32 a4, uint32 a5)
{
  801ac9:	55                   	push   %ebp
  801aca:	89 e5                	mov    %esp,%ebp
  801acc:	57                   	push   %edi
  801acd:	56                   	push   %esi
  801ace:	53                   	push   %ebx
  801acf:	83 ec 10             	sub    $0x10,%esp
	//
	// The last clause tells the assembler that this can
	// potentially change the condition codes and arbitrary
	// memory locations.

	asm volatile("int %1\n"
  801ad2:	8b 45 08             	mov    0x8(%ebp),%eax
  801ad5:	8b 55 0c             	mov    0xc(%ebp),%edx
  801ad8:	8b 4d 10             	mov    0x10(%ebp),%ecx
  801adb:	8b 5d 14             	mov    0x14(%ebp),%ebx
  801ade:	8b 7d 18             	mov    0x18(%ebp),%edi
  801ae1:	8b 75 1c             	mov    0x1c(%ebp),%esi
  801ae4:	cd 30                	int    $0x30
  801ae6:	89 45 f0             	mov    %eax,-0x10(%ebp)
		  "b" (a3),
		  "D" (a4),
		  "S" (a5)
		: "cc", "memory");

	return ret;
  801ae9:	8b 45 f0             	mov    -0x10(%ebp),%eax
}
  801aec:	83 c4 10             	add    $0x10,%esp
  801aef:	5b                   	pop    %ebx
  801af0:	5e                   	pop    %esi
  801af1:	5f                   	pop    %edi
  801af2:	5d                   	pop    %ebp
  801af3:	c3                   	ret    

00801af4 <sys_cputs>:

void
sys_cputs(const char *s, uint32 len, uint8 printProgName)
{
  801af4:	55                   	push   %ebp
  801af5:	89 e5                	mov    %esp,%ebp
  801af7:	83 ec 04             	sub    $0x4,%esp
  801afa:	8b 45 10             	mov    0x10(%ebp),%eax
  801afd:	88 45 fc             	mov    %al,-0x4(%ebp)
	syscall(SYS_cputs, (uint32) s, len, (uint32)printProgName, 0, 0);
  801b00:	0f b6 55 fc          	movzbl -0x4(%ebp),%edx
  801b04:	8b 45 08             	mov    0x8(%ebp),%eax
  801b07:	6a 00                	push   $0x0
  801b09:	6a 00                	push   $0x0
  801b0b:	52                   	push   %edx
  801b0c:	ff 75 0c             	pushl  0xc(%ebp)
  801b0f:	50                   	push   %eax
  801b10:	6a 00                	push   $0x0
  801b12:	e8 b2 ff ff ff       	call   801ac9 <syscall>
  801b17:	83 c4 18             	add    $0x18,%esp
}
  801b1a:	90                   	nop
  801b1b:	c9                   	leave  
  801b1c:	c3                   	ret    

00801b1d <sys_cgetc>:

int
sys_cgetc(void)
{
  801b1d:	55                   	push   %ebp
  801b1e:	89 e5                	mov    %esp,%ebp
	return syscall(SYS_cgetc, 0, 0, 0, 0, 0);
  801b20:	6a 00                	push   $0x0
  801b22:	6a 00                	push   $0x0
  801b24:	6a 00                	push   $0x0
  801b26:	6a 00                	push   $0x0
  801b28:	6a 00                	push   $0x0
  801b2a:	6a 01                	push   $0x1
  801b2c:	e8 98 ff ff ff       	call   801ac9 <syscall>
  801b31:	83 c4 18             	add    $0x18,%esp
}
  801b34:	c9                   	leave  
  801b35:	c3                   	ret    

00801b36 <__sys_allocate_page>:

int __sys_allocate_page(void *va, int perm)
{
  801b36:	55                   	push   %ebp
  801b37:	89 e5                	mov    %esp,%ebp
	return syscall(SYS_allocate_page, (uint32) va, perm, 0 , 0, 0);
  801b39:	8b 55 0c             	mov    0xc(%ebp),%edx
  801b3c:	8b 45 08             	mov    0x8(%ebp),%eax
  801b3f:	6a 00                	push   $0x0
  801b41:	6a 00                	push   $0x0
  801b43:	6a 00                	push   $0x0
  801b45:	52                   	push   %edx
  801b46:	50                   	push   %eax
  801b47:	6a 05                	push   $0x5
  801b49:	e8 7b ff ff ff       	call   801ac9 <syscall>
  801b4e:	83 c4 18             	add    $0x18,%esp
}
  801b51:	c9                   	leave  
  801b52:	c3                   	ret    

00801b53 <__sys_map_frame>:

int __sys_map_frame(int32 srcenv, void *srcva, int32 dstenv, void *dstva, int perm)
{
  801b53:	55                   	push   %ebp
  801b54:	89 e5                	mov    %esp,%ebp
  801b56:	56                   	push   %esi
  801b57:	53                   	push   %ebx
	return syscall(SYS_map_frame, srcenv, (uint32) srcva, dstenv, (uint32) dstva, perm);
  801b58:	8b 75 18             	mov    0x18(%ebp),%esi
  801b5b:	8b 5d 14             	mov    0x14(%ebp),%ebx
  801b5e:	8b 4d 10             	mov    0x10(%ebp),%ecx
  801b61:	8b 55 0c             	mov    0xc(%ebp),%edx
  801b64:	8b 45 08             	mov    0x8(%ebp),%eax
  801b67:	56                   	push   %esi
  801b68:	53                   	push   %ebx
  801b69:	51                   	push   %ecx
  801b6a:	52                   	push   %edx
  801b6b:	50                   	push   %eax
  801b6c:	6a 06                	push   $0x6
  801b6e:	e8 56 ff ff ff       	call   801ac9 <syscall>
  801b73:	83 c4 18             	add    $0x18,%esp
}
  801b76:	8d 65 f8             	lea    -0x8(%ebp),%esp
  801b79:	5b                   	pop    %ebx
  801b7a:	5e                   	pop    %esi
  801b7b:	5d                   	pop    %ebp
  801b7c:	c3                   	ret    

00801b7d <__sys_unmap_frame>:

int __sys_unmap_frame(int32 envid, void *va)
{
  801b7d:	55                   	push   %ebp
  801b7e:	89 e5                	mov    %esp,%ebp
	return syscall(SYS_unmap_frame, envid, (uint32) va, 0, 0, 0);
  801b80:	8b 55 0c             	mov    0xc(%ebp),%edx
  801b83:	8b 45 08             	mov    0x8(%ebp),%eax
  801b86:	6a 00                	push   $0x0
  801b88:	6a 00                	push   $0x0
  801b8a:	6a 00                	push   $0x0
  801b8c:	52                   	push   %edx
  801b8d:	50                   	push   %eax
  801b8e:	6a 07                	push   $0x7
  801b90:	e8 34 ff ff ff       	call   801ac9 <syscall>
  801b95:	83 c4 18             	add    $0x18,%esp
}
  801b98:	c9                   	leave  
  801b99:	c3                   	ret    

00801b9a <sys_calculate_required_frames>:

uint32 sys_calculate_required_frames(uint32 start_virtual_address, uint32 size)
{
  801b9a:	55                   	push   %ebp
  801b9b:	89 e5                	mov    %esp,%ebp
	return syscall(SYS_calc_req_frames, start_virtual_address, (uint32) size, 0, 0, 0);
  801b9d:	6a 00                	push   $0x0
  801b9f:	6a 00                	push   $0x0
  801ba1:	6a 00                	push   $0x0
  801ba3:	ff 75 0c             	pushl  0xc(%ebp)
  801ba6:	ff 75 08             	pushl  0x8(%ebp)
  801ba9:	6a 08                	push   $0x8
  801bab:	e8 19 ff ff ff       	call   801ac9 <syscall>
  801bb0:	83 c4 18             	add    $0x18,%esp
}
  801bb3:	c9                   	leave  
  801bb4:	c3                   	ret    

00801bb5 <sys_calculate_free_frames>:

uint32 sys_calculate_free_frames()
{
  801bb5:	55                   	push   %ebp
  801bb6:	89 e5                	mov    %esp,%ebp
	return syscall(SYS_calc_free_frames, 0, 0, 0, 0, 0);
  801bb8:	6a 00                	push   $0x0
  801bba:	6a 00                	push   $0x0
  801bbc:	6a 00                	push   $0x0
  801bbe:	6a 00                	push   $0x0
  801bc0:	6a 00                	push   $0x0
  801bc2:	6a 09                	push   $0x9
  801bc4:	e8 00 ff ff ff       	call   801ac9 <syscall>
  801bc9:	83 c4 18             	add    $0x18,%esp
}
  801bcc:	c9                   	leave  
  801bcd:	c3                   	ret    

00801bce <sys_calculate_modified_frames>:
uint32 sys_calculate_modified_frames()
{
  801bce:	55                   	push   %ebp
  801bcf:	89 e5                	mov    %esp,%ebp
	return syscall(SYS_calc_modified_frames, 0, 0, 0, 0, 0);
  801bd1:	6a 00                	push   $0x0
  801bd3:	6a 00                	push   $0x0
  801bd5:	6a 00                	push   $0x0
  801bd7:	6a 00                	push   $0x0
  801bd9:	6a 00                	push   $0x0
  801bdb:	6a 0a                	push   $0xa
  801bdd:	e8 e7 fe ff ff       	call   801ac9 <syscall>
  801be2:	83 c4 18             	add    $0x18,%esp
}
  801be5:	c9                   	leave  
  801be6:	c3                   	ret    

00801be7 <sys_calculate_notmod_frames>:

uint32 sys_calculate_notmod_frames()
{
  801be7:	55                   	push   %ebp
  801be8:	89 e5                	mov    %esp,%ebp
	return syscall(SYS_calc_notmod_frames, 0, 0, 0, 0, 0);
  801bea:	6a 00                	push   $0x0
  801bec:	6a 00                	push   $0x0
  801bee:	6a 00                	push   $0x0
  801bf0:	6a 00                	push   $0x0
  801bf2:	6a 00                	push   $0x0
  801bf4:	6a 0b                	push   $0xb
  801bf6:	e8 ce fe ff ff       	call   801ac9 <syscall>
  801bfb:	83 c4 18             	add    $0x18,%esp
}
  801bfe:	c9                   	leave  
  801bff:	c3                   	ret    

00801c00 <sys_pf_calculate_allocated_pages>:



int sys_pf_calculate_allocated_pages()
{
  801c00:	55                   	push   %ebp
  801c01:	89 e5                	mov    %esp,%ebp
	return syscall(SYS_pf_calc_allocated_pages, 0,0,0,0,0);
  801c03:	6a 00                	push   $0x0
  801c05:	6a 00                	push   $0x0
  801c07:	6a 00                	push   $0x0
  801c09:	6a 00                	push   $0x0
  801c0b:	6a 00                	push   $0x0
  801c0d:	6a 0c                	push   $0xc
  801c0f:	e8 b5 fe ff ff       	call   801ac9 <syscall>
  801c14:	83 c4 18             	add    $0x18,%esp
}
  801c17:	c9                   	leave  
  801c18:	c3                   	ret    

00801c19 <sys_calculate_pages_tobe_removed_ready_exit>:

int sys_calculate_pages_tobe_removed_ready_exit(uint32 WS_or_MEMORY_flag)
{
  801c19:	55                   	push   %ebp
  801c1a:	89 e5                	mov    %esp,%ebp
	return syscall(SYS_calculate_pages_tobe_removed_ready_exit, WS_or_MEMORY_flag,0,0,0,0);
  801c1c:	6a 00                	push   $0x0
  801c1e:	6a 00                	push   $0x0
  801c20:	6a 00                	push   $0x0
  801c22:	6a 00                	push   $0x0
  801c24:	ff 75 08             	pushl  0x8(%ebp)
  801c27:	6a 0d                	push   $0xd
  801c29:	e8 9b fe ff ff       	call   801ac9 <syscall>
  801c2e:	83 c4 18             	add    $0x18,%esp
}
  801c31:	c9                   	leave  
  801c32:	c3                   	ret    

00801c33 <sys_scarce_memory>:

void sys_scarce_memory()
{
  801c33:	55                   	push   %ebp
  801c34:	89 e5                	mov    %esp,%ebp
	syscall(SYS_scarce_memory,0,0,0,0,0);
  801c36:	6a 00                	push   $0x0
  801c38:	6a 00                	push   $0x0
  801c3a:	6a 00                	push   $0x0
  801c3c:	6a 00                	push   $0x0
  801c3e:	6a 00                	push   $0x0
  801c40:	6a 0e                	push   $0xe
  801c42:	e8 82 fe ff ff       	call   801ac9 <syscall>
  801c47:	83 c4 18             	add    $0x18,%esp
}
  801c4a:	90                   	nop
  801c4b:	c9                   	leave  
  801c4c:	c3                   	ret    

00801c4d <sys_disable_interrupt>:

//NEW !! 2012...
void
sys_disable_interrupt()
{
  801c4d:	55                   	push   %ebp
  801c4e:	89 e5                	mov    %esp,%ebp
	syscall(SYS_disableINTR,0, 0, 0, 0, 0);
  801c50:	6a 00                	push   $0x0
  801c52:	6a 00                	push   $0x0
  801c54:	6a 00                	push   $0x0
  801c56:	6a 00                	push   $0x0
  801c58:	6a 00                	push   $0x0
  801c5a:	6a 11                	push   $0x11
  801c5c:	e8 68 fe ff ff       	call   801ac9 <syscall>
  801c61:	83 c4 18             	add    $0x18,%esp
}
  801c64:	90                   	nop
  801c65:	c9                   	leave  
  801c66:	c3                   	ret    

00801c67 <sys_enable_interrupt>:


void
sys_enable_interrupt()
{
  801c67:	55                   	push   %ebp
  801c68:	89 e5                	mov    %esp,%ebp
	syscall(SYS_enableINTR,0, 0, 0, 0, 0);
  801c6a:	6a 00                	push   $0x0
  801c6c:	6a 00                	push   $0x0
  801c6e:	6a 00                	push   $0x0
  801c70:	6a 00                	push   $0x0
  801c72:	6a 00                	push   $0x0
  801c74:	6a 12                	push   $0x12
  801c76:	e8 4e fe ff ff       	call   801ac9 <syscall>
  801c7b:	83 c4 18             	add    $0x18,%esp
}
  801c7e:	90                   	nop
  801c7f:	c9                   	leave  
  801c80:	c3                   	ret    

00801c81 <sys_cputc>:


void
sys_cputc(const char c)
{
  801c81:	55                   	push   %ebp
  801c82:	89 e5                	mov    %esp,%ebp
  801c84:	83 ec 04             	sub    $0x4,%esp
  801c87:	8b 45 08             	mov    0x8(%ebp),%eax
  801c8a:	88 45 fc             	mov    %al,-0x4(%ebp)
	syscall(SYS_cputc, (uint32) c, 0, 0, 0, 0);
  801c8d:	0f be 45 fc          	movsbl -0x4(%ebp),%eax
  801c91:	6a 00                	push   $0x0
  801c93:	6a 00                	push   $0x0
  801c95:	6a 00                	push   $0x0
  801c97:	6a 00                	push   $0x0
  801c99:	50                   	push   %eax
  801c9a:	6a 13                	push   $0x13
  801c9c:	e8 28 fe ff ff       	call   801ac9 <syscall>
  801ca1:	83 c4 18             	add    $0x18,%esp
}
  801ca4:	90                   	nop
  801ca5:	c9                   	leave  
  801ca6:	c3                   	ret    

00801ca7 <sys_clear_ffl>:


//NEW'12: BONUS2 Testing
void
sys_clear_ffl()
{
  801ca7:	55                   	push   %ebp
  801ca8:	89 e5                	mov    %esp,%ebp
	syscall(SYS_clearFFL,0, 0, 0, 0, 0);
  801caa:	6a 00                	push   $0x0
  801cac:	6a 00                	push   $0x0
  801cae:	6a 00                	push   $0x0
  801cb0:	6a 00                	push   $0x0
  801cb2:	6a 00                	push   $0x0
  801cb4:	6a 14                	push   $0x14
  801cb6:	e8 0e fe ff ff       	call   801ac9 <syscall>
  801cbb:	83 c4 18             	add    $0x18,%esp
}
  801cbe:	90                   	nop
  801cbf:	c9                   	leave  
  801cc0:	c3                   	ret    

00801cc1 <sys_createSemaphore>:

int
sys_createSemaphore(char* semaphoreName, uint32 initialValue)
{
  801cc1:	55                   	push   %ebp
  801cc2:	89 e5                	mov    %esp,%ebp
	return syscall(SYS_create_semaphore,(uint32)semaphoreName, (uint32)initialValue, 0, 0, 0);
  801cc4:	8b 45 08             	mov    0x8(%ebp),%eax
  801cc7:	6a 00                	push   $0x0
  801cc9:	6a 00                	push   $0x0
  801ccb:	6a 00                	push   $0x0
  801ccd:	ff 75 0c             	pushl  0xc(%ebp)
  801cd0:	50                   	push   %eax
  801cd1:	6a 15                	push   $0x15
  801cd3:	e8 f1 fd ff ff       	call   801ac9 <syscall>
  801cd8:	83 c4 18             	add    $0x18,%esp
}
  801cdb:	c9                   	leave  
  801cdc:	c3                   	ret    

00801cdd <sys_getSemaphoreValue>:

int
sys_getSemaphoreValue(int32 ownerEnvID, char* semaphoreName)
{
  801cdd:	55                   	push   %ebp
  801cde:	89 e5                	mov    %esp,%ebp
	return syscall(SYS_get_semaphore_value,(uint32) ownerEnvID, (uint32)semaphoreName, 0, 0, 0);
  801ce0:	8b 55 0c             	mov    0xc(%ebp),%edx
  801ce3:	8b 45 08             	mov    0x8(%ebp),%eax
  801ce6:	6a 00                	push   $0x0
  801ce8:	6a 00                	push   $0x0
  801cea:	6a 00                	push   $0x0
  801cec:	52                   	push   %edx
  801ced:	50                   	push   %eax
  801cee:	6a 18                	push   $0x18
  801cf0:	e8 d4 fd ff ff       	call   801ac9 <syscall>
  801cf5:	83 c4 18             	add    $0x18,%esp
}
  801cf8:	c9                   	leave  
  801cf9:	c3                   	ret    

00801cfa <sys_waitSemaphore>:

void
sys_waitSemaphore(int32 ownerEnvID, char* semaphoreName)
{
  801cfa:	55                   	push   %ebp
  801cfb:	89 e5                	mov    %esp,%ebp
	syscall(SYS_wait_semaphore,(uint32) ownerEnvID, (uint32)semaphoreName, 0, 0, 0);
  801cfd:	8b 55 0c             	mov    0xc(%ebp),%edx
  801d00:	8b 45 08             	mov    0x8(%ebp),%eax
  801d03:	6a 00                	push   $0x0
  801d05:	6a 00                	push   $0x0
  801d07:	6a 00                	push   $0x0
  801d09:	52                   	push   %edx
  801d0a:	50                   	push   %eax
  801d0b:	6a 16                	push   $0x16
  801d0d:	e8 b7 fd ff ff       	call   801ac9 <syscall>
  801d12:	83 c4 18             	add    $0x18,%esp
}
  801d15:	90                   	nop
  801d16:	c9                   	leave  
  801d17:	c3                   	ret    

00801d18 <sys_signalSemaphore>:

void
sys_signalSemaphore(int32 ownerEnvID, char* semaphoreName)
{
  801d18:	55                   	push   %ebp
  801d19:	89 e5                	mov    %esp,%ebp
	syscall(SYS_signal_semaphore,(uint32) ownerEnvID, (uint32)semaphoreName, 0, 0, 0);
  801d1b:	8b 55 0c             	mov    0xc(%ebp),%edx
  801d1e:	8b 45 08             	mov    0x8(%ebp),%eax
  801d21:	6a 00                	push   $0x0
  801d23:	6a 00                	push   $0x0
  801d25:	6a 00                	push   $0x0
  801d27:	52                   	push   %edx
  801d28:	50                   	push   %eax
  801d29:	6a 17                	push   $0x17
  801d2b:	e8 99 fd ff ff       	call   801ac9 <syscall>
  801d30:	83 c4 18             	add    $0x18,%esp
}
  801d33:	90                   	nop
  801d34:	c9                   	leave  
  801d35:	c3                   	ret    

00801d36 <sys_createSharedObject>:

int
sys_createSharedObject(char* shareName, uint32 size, uint8 isWritable, void* virtual_address)
{
  801d36:	55                   	push   %ebp
  801d37:	89 e5                	mov    %esp,%ebp
  801d39:	83 ec 04             	sub    $0x4,%esp
  801d3c:	8b 45 10             	mov    0x10(%ebp),%eax
  801d3f:	88 45 fc             	mov    %al,-0x4(%ebp)
	return syscall(SYS_create_shared_object,(uint32)shareName, (uint32)size, isWritable, (uint32)virtual_address,  0);
  801d42:	8b 4d 14             	mov    0x14(%ebp),%ecx
  801d45:	0f b6 55 fc          	movzbl -0x4(%ebp),%edx
  801d49:	8b 45 08             	mov    0x8(%ebp),%eax
  801d4c:	6a 00                	push   $0x0
  801d4e:	51                   	push   %ecx
  801d4f:	52                   	push   %edx
  801d50:	ff 75 0c             	pushl  0xc(%ebp)
  801d53:	50                   	push   %eax
  801d54:	6a 19                	push   $0x19
  801d56:	e8 6e fd ff ff       	call   801ac9 <syscall>
  801d5b:	83 c4 18             	add    $0x18,%esp
}
  801d5e:	c9                   	leave  
  801d5f:	c3                   	ret    

00801d60 <sys_getSizeOfSharedObject>:

//2017:
int
sys_getSizeOfSharedObject(int32 ownerID, char* shareName)
{
  801d60:	55                   	push   %ebp
  801d61:	89 e5                	mov    %esp,%ebp
	return syscall(SYS_get_size_of_shared_object,(uint32) ownerID, (uint32)shareName, 0, 0, 0);
  801d63:	8b 55 0c             	mov    0xc(%ebp),%edx
  801d66:	8b 45 08             	mov    0x8(%ebp),%eax
  801d69:	6a 00                	push   $0x0
  801d6b:	6a 00                	push   $0x0
  801d6d:	6a 00                	push   $0x0
  801d6f:	52                   	push   %edx
  801d70:	50                   	push   %eax
  801d71:	6a 1a                	push   $0x1a
  801d73:	e8 51 fd ff ff       	call   801ac9 <syscall>
  801d78:	83 c4 18             	add    $0x18,%esp
}
  801d7b:	c9                   	leave  
  801d7c:	c3                   	ret    

00801d7d <sys_getSharedObject>:
//==========

int
sys_getSharedObject(int32 ownerID, char* shareName, void* virtual_address)
{
  801d7d:	55                   	push   %ebp
  801d7e:	89 e5                	mov    %esp,%ebp
	return syscall(SYS_get_shared_object,(uint32) ownerID, (uint32)shareName, (uint32)virtual_address, 0, 0);
  801d80:	8b 4d 10             	mov    0x10(%ebp),%ecx
  801d83:	8b 55 0c             	mov    0xc(%ebp),%edx
  801d86:	8b 45 08             	mov    0x8(%ebp),%eax
  801d89:	6a 00                	push   $0x0
  801d8b:	6a 00                	push   $0x0
  801d8d:	51                   	push   %ecx
  801d8e:	52                   	push   %edx
  801d8f:	50                   	push   %eax
  801d90:	6a 1b                	push   $0x1b
  801d92:	e8 32 fd ff ff       	call   801ac9 <syscall>
  801d97:	83 c4 18             	add    $0x18,%esp
}
  801d9a:	c9                   	leave  
  801d9b:	c3                   	ret    

00801d9c <sys_freeSharedObject>:

int
sys_freeSharedObject(int32 sharedObjectID, void *startVA)
{
  801d9c:	55                   	push   %ebp
  801d9d:	89 e5                	mov    %esp,%ebp
	return syscall(SYS_free_shared_object,(uint32) sharedObjectID, (uint32) startVA, 0, 0, 0);
  801d9f:	8b 55 0c             	mov    0xc(%ebp),%edx
  801da2:	8b 45 08             	mov    0x8(%ebp),%eax
  801da5:	6a 00                	push   $0x0
  801da7:	6a 00                	push   $0x0
  801da9:	6a 00                	push   $0x0
  801dab:	52                   	push   %edx
  801dac:	50                   	push   %eax
  801dad:	6a 1c                	push   $0x1c
  801daf:	e8 15 fd ff ff       	call   801ac9 <syscall>
  801db4:	83 c4 18             	add    $0x18,%esp
}
  801db7:	c9                   	leave  
  801db8:	c3                   	ret    

00801db9 <sys_getMaxShares>:

uint32 	sys_getMaxShares()
{
  801db9:	55                   	push   %ebp
  801dba:	89 e5                	mov    %esp,%ebp
	return syscall(SYS_get_max_shares,0, 0, 0, 0, 0);
  801dbc:	6a 00                	push   $0x0
  801dbe:	6a 00                	push   $0x0
  801dc0:	6a 00                	push   $0x0
  801dc2:	6a 00                	push   $0x0
  801dc4:	6a 00                	push   $0x0
  801dc6:	6a 1d                	push   $0x1d
  801dc8:	e8 fc fc ff ff       	call   801ac9 <syscall>
  801dcd:	83 c4 18             	add    $0x18,%esp
}
  801dd0:	c9                   	leave  
  801dd1:	c3                   	ret    

00801dd2 <sys_create_env>:

int sys_create_env(char* programName, unsigned int page_WS_size,unsigned int LRU_second_list_size,unsigned int percent_WS_pages_to_remove)
{
  801dd2:	55                   	push   %ebp
  801dd3:	89 e5                	mov    %esp,%ebp
	return syscall(SYS_create_env,(uint32)programName, (uint32)page_WS_size,(uint32)LRU_second_list_size, (uint32)percent_WS_pages_to_remove, 0);
  801dd5:	8b 45 08             	mov    0x8(%ebp),%eax
  801dd8:	6a 00                	push   $0x0
  801dda:	ff 75 14             	pushl  0x14(%ebp)
  801ddd:	ff 75 10             	pushl  0x10(%ebp)
  801de0:	ff 75 0c             	pushl  0xc(%ebp)
  801de3:	50                   	push   %eax
  801de4:	6a 1e                	push   $0x1e
  801de6:	e8 de fc ff ff       	call   801ac9 <syscall>
  801deb:	83 c4 18             	add    $0x18,%esp
}
  801dee:	c9                   	leave  
  801def:	c3                   	ret    

00801df0 <sys_run_env>:

void
sys_run_env(int32 envId)
{
  801df0:	55                   	push   %ebp
  801df1:	89 e5                	mov    %esp,%ebp
	syscall(SYS_run_env, (int32)envId, 0, 0, 0, 0);
  801df3:	8b 45 08             	mov    0x8(%ebp),%eax
  801df6:	6a 00                	push   $0x0
  801df8:	6a 00                	push   $0x0
  801dfa:	6a 00                	push   $0x0
  801dfc:	6a 00                	push   $0x0
  801dfe:	50                   	push   %eax
  801dff:	6a 1f                	push   $0x1f
  801e01:	e8 c3 fc ff ff       	call   801ac9 <syscall>
  801e06:	83 c4 18             	add    $0x18,%esp
}
  801e09:	90                   	nop
  801e0a:	c9                   	leave  
  801e0b:	c3                   	ret    

00801e0c <sys_destroy_env>:

int sys_destroy_env(int32  envid)
{
  801e0c:	55                   	push   %ebp
  801e0d:	89 e5                	mov    %esp,%ebp
	return syscall(SYS_destroy_env, envid, 0, 0, 0, 0);
  801e0f:	8b 45 08             	mov    0x8(%ebp),%eax
  801e12:	6a 00                	push   $0x0
  801e14:	6a 00                	push   $0x0
  801e16:	6a 00                	push   $0x0
  801e18:	6a 00                	push   $0x0
  801e1a:	50                   	push   %eax
  801e1b:	6a 20                	push   $0x20
  801e1d:	e8 a7 fc ff ff       	call   801ac9 <syscall>
  801e22:	83 c4 18             	add    $0x18,%esp
}
  801e25:	c9                   	leave  
  801e26:	c3                   	ret    

00801e27 <sys_getenvid>:

int32 sys_getenvid(void)
{
  801e27:	55                   	push   %ebp
  801e28:	89 e5                	mov    %esp,%ebp
	 return syscall(SYS_getenvid, 0, 0, 0, 0, 0);
  801e2a:	6a 00                	push   $0x0
  801e2c:	6a 00                	push   $0x0
  801e2e:	6a 00                	push   $0x0
  801e30:	6a 00                	push   $0x0
  801e32:	6a 00                	push   $0x0
  801e34:	6a 02                	push   $0x2
  801e36:	e8 8e fc ff ff       	call   801ac9 <syscall>
  801e3b:	83 c4 18             	add    $0x18,%esp
}
  801e3e:	c9                   	leave  
  801e3f:	c3                   	ret    

00801e40 <sys_getenvindex>:

//2017
int32 sys_getenvindex(void)
{
  801e40:	55                   	push   %ebp
  801e41:	89 e5                	mov    %esp,%ebp
	 return syscall(SYS_getenvindex, 0, 0, 0, 0, 0);
  801e43:	6a 00                	push   $0x0
  801e45:	6a 00                	push   $0x0
  801e47:	6a 00                	push   $0x0
  801e49:	6a 00                	push   $0x0
  801e4b:	6a 00                	push   $0x0
  801e4d:	6a 03                	push   $0x3
  801e4f:	e8 75 fc ff ff       	call   801ac9 <syscall>
  801e54:	83 c4 18             	add    $0x18,%esp
}
  801e57:	c9                   	leave  
  801e58:	c3                   	ret    

00801e59 <sys_getparentenvid>:

int32 sys_getparentenvid(void)
{
  801e59:	55                   	push   %ebp
  801e5a:	89 e5                	mov    %esp,%ebp
	 return syscall(SYS_getparentenvid, 0, 0, 0, 0, 0);
  801e5c:	6a 00                	push   $0x0
  801e5e:	6a 00                	push   $0x0
  801e60:	6a 00                	push   $0x0
  801e62:	6a 00                	push   $0x0
  801e64:	6a 00                	push   $0x0
  801e66:	6a 04                	push   $0x4
  801e68:	e8 5c fc ff ff       	call   801ac9 <syscall>
  801e6d:	83 c4 18             	add    $0x18,%esp
}
  801e70:	c9                   	leave  
  801e71:	c3                   	ret    

00801e72 <sys_exit_env>:


void sys_exit_env(void)
{
  801e72:	55                   	push   %ebp
  801e73:	89 e5                	mov    %esp,%ebp
	syscall(SYS_exit_env, 0, 0, 0, 0, 0);
  801e75:	6a 00                	push   $0x0
  801e77:	6a 00                	push   $0x0
  801e79:	6a 00                	push   $0x0
  801e7b:	6a 00                	push   $0x0
  801e7d:	6a 00                	push   $0x0
  801e7f:	6a 21                	push   $0x21
  801e81:	e8 43 fc ff ff       	call   801ac9 <syscall>
  801e86:	83 c4 18             	add    $0x18,%esp
}
  801e89:	90                   	nop
  801e8a:	c9                   	leave  
  801e8b:	c3                   	ret    

00801e8c <sys_get_virtual_time>:


struct uint64
sys_get_virtual_time()
{
  801e8c:	55                   	push   %ebp
  801e8d:	89 e5                	mov    %esp,%ebp
  801e8f:	83 ec 10             	sub    $0x10,%esp
	struct uint64 result;
	syscall(SYS_get_virtual_time, (uint32)&(result.low), (uint32)&(result.hi), 0, 0, 0);
  801e92:	8d 45 f8             	lea    -0x8(%ebp),%eax
  801e95:	8d 50 04             	lea    0x4(%eax),%edx
  801e98:	8d 45 f8             	lea    -0x8(%ebp),%eax
  801e9b:	6a 00                	push   $0x0
  801e9d:	6a 00                	push   $0x0
  801e9f:	6a 00                	push   $0x0
  801ea1:	52                   	push   %edx
  801ea2:	50                   	push   %eax
  801ea3:	6a 22                	push   $0x22
  801ea5:	e8 1f fc ff ff       	call   801ac9 <syscall>
  801eaa:	83 c4 18             	add    $0x18,%esp
	return result;
  801ead:	8b 4d 08             	mov    0x8(%ebp),%ecx
  801eb0:	8b 45 f8             	mov    -0x8(%ebp),%eax
  801eb3:	8b 55 fc             	mov    -0x4(%ebp),%edx
  801eb6:	89 01                	mov    %eax,(%ecx)
  801eb8:	89 51 04             	mov    %edx,0x4(%ecx)
}
  801ebb:	8b 45 08             	mov    0x8(%ebp),%eax
  801ebe:	c9                   	leave  
  801ebf:	c2 04 00             	ret    $0x4

00801ec2 <sys_move_user_mem>:

// 2014
void sys_move_user_mem(uint32 src_virtual_address, uint32 dst_virtual_address, uint32 size)
{
  801ec2:	55                   	push   %ebp
  801ec3:	89 e5                	mov    %esp,%ebp
	syscall(SYS_move_user_mem, src_virtual_address, dst_virtual_address, size, 0, 0);
  801ec5:	6a 00                	push   $0x0
  801ec7:	6a 00                	push   $0x0
  801ec9:	ff 75 10             	pushl  0x10(%ebp)
  801ecc:	ff 75 0c             	pushl  0xc(%ebp)
  801ecf:	ff 75 08             	pushl  0x8(%ebp)
  801ed2:	6a 10                	push   $0x10
  801ed4:	e8 f0 fb ff ff       	call   801ac9 <syscall>
  801ed9:	83 c4 18             	add    $0x18,%esp
	return ;
  801edc:	90                   	nop
}
  801edd:	c9                   	leave  
  801ede:	c3                   	ret    

00801edf <sys_rcr2>:
uint32 sys_rcr2()
{
  801edf:	55                   	push   %ebp
  801ee0:	89 e5                	mov    %esp,%ebp
	return syscall(SYS_rcr2, 0, 0, 0, 0, 0);
  801ee2:	6a 00                	push   $0x0
  801ee4:	6a 00                	push   $0x0
  801ee6:	6a 00                	push   $0x0
  801ee8:	6a 00                	push   $0x0
  801eea:	6a 00                	push   $0x0
  801eec:	6a 23                	push   $0x23
  801eee:	e8 d6 fb ff ff       	call   801ac9 <syscall>
  801ef3:	83 c4 18             	add    $0x18,%esp
}
  801ef6:	c9                   	leave  
  801ef7:	c3                   	ret    

00801ef8 <sys_bypassPageFault>:
void sys_bypassPageFault(uint8 instrLength)
{
  801ef8:	55                   	push   %ebp
  801ef9:	89 e5                	mov    %esp,%ebp
  801efb:	83 ec 04             	sub    $0x4,%esp
  801efe:	8b 45 08             	mov    0x8(%ebp),%eax
  801f01:	88 45 fc             	mov    %al,-0x4(%ebp)
	syscall(SYS_bypassPageFault, instrLength, 0, 0, 0, 0);
  801f04:	0f b6 45 fc          	movzbl -0x4(%ebp),%eax
  801f08:	6a 00                	push   $0x0
  801f0a:	6a 00                	push   $0x0
  801f0c:	6a 00                	push   $0x0
  801f0e:	6a 00                	push   $0x0
  801f10:	50                   	push   %eax
  801f11:	6a 24                	push   $0x24
  801f13:	e8 b1 fb ff ff       	call   801ac9 <syscall>
  801f18:	83 c4 18             	add    $0x18,%esp
	return ;
  801f1b:	90                   	nop
}
  801f1c:	c9                   	leave  
  801f1d:	c3                   	ret    

00801f1e <rsttst>:
void rsttst()
{
  801f1e:	55                   	push   %ebp
  801f1f:	89 e5                	mov    %esp,%ebp
	syscall(SYS_rsttst, 0, 0, 0, 0, 0);
  801f21:	6a 00                	push   $0x0
  801f23:	6a 00                	push   $0x0
  801f25:	6a 00                	push   $0x0
  801f27:	6a 00                	push   $0x0
  801f29:	6a 00                	push   $0x0
  801f2b:	6a 26                	push   $0x26
  801f2d:	e8 97 fb ff ff       	call   801ac9 <syscall>
  801f32:	83 c4 18             	add    $0x18,%esp
	return ;
  801f35:	90                   	nop
}
  801f36:	c9                   	leave  
  801f37:	c3                   	ret    

00801f38 <tst>:
void tst(uint32 n, uint32 v1, uint32 v2, char c, int inv)
{
  801f38:	55                   	push   %ebp
  801f39:	89 e5                	mov    %esp,%ebp
  801f3b:	83 ec 04             	sub    $0x4,%esp
  801f3e:	8b 45 14             	mov    0x14(%ebp),%eax
  801f41:	88 45 fc             	mov    %al,-0x4(%ebp)
	syscall(SYS_testNum, n, v1, v2, c, inv);
  801f44:	8b 55 18             	mov    0x18(%ebp),%edx
  801f47:	0f be 45 fc          	movsbl -0x4(%ebp),%eax
  801f4b:	52                   	push   %edx
  801f4c:	50                   	push   %eax
  801f4d:	ff 75 10             	pushl  0x10(%ebp)
  801f50:	ff 75 0c             	pushl  0xc(%ebp)
  801f53:	ff 75 08             	pushl  0x8(%ebp)
  801f56:	6a 25                	push   $0x25
  801f58:	e8 6c fb ff ff       	call   801ac9 <syscall>
  801f5d:	83 c4 18             	add    $0x18,%esp
	return ;
  801f60:	90                   	nop
}
  801f61:	c9                   	leave  
  801f62:	c3                   	ret    

00801f63 <chktst>:
void chktst(uint32 n)
{
  801f63:	55                   	push   %ebp
  801f64:	89 e5                	mov    %esp,%ebp
	syscall(SYS_chktst, n, 0, 0, 0, 0);
  801f66:	6a 00                	push   $0x0
  801f68:	6a 00                	push   $0x0
  801f6a:	6a 00                	push   $0x0
  801f6c:	6a 00                	push   $0x0
  801f6e:	ff 75 08             	pushl  0x8(%ebp)
  801f71:	6a 27                	push   $0x27
  801f73:	e8 51 fb ff ff       	call   801ac9 <syscall>
  801f78:	83 c4 18             	add    $0x18,%esp
	return ;
  801f7b:	90                   	nop
}
  801f7c:	c9                   	leave  
  801f7d:	c3                   	ret    

00801f7e <inctst>:

void inctst()
{
  801f7e:	55                   	push   %ebp
  801f7f:	89 e5                	mov    %esp,%ebp
	syscall(SYS_inctst, 0, 0, 0, 0, 0);
  801f81:	6a 00                	push   $0x0
  801f83:	6a 00                	push   $0x0
  801f85:	6a 00                	push   $0x0
  801f87:	6a 00                	push   $0x0
  801f89:	6a 00                	push   $0x0
  801f8b:	6a 28                	push   $0x28
  801f8d:	e8 37 fb ff ff       	call   801ac9 <syscall>
  801f92:	83 c4 18             	add    $0x18,%esp
	return ;
  801f95:	90                   	nop
}
  801f96:	c9                   	leave  
  801f97:	c3                   	ret    

00801f98 <gettst>:
uint32 gettst()
{
  801f98:	55                   	push   %ebp
  801f99:	89 e5                	mov    %esp,%ebp
	return syscall(SYS_gettst, 0, 0, 0, 0, 0);
  801f9b:	6a 00                	push   $0x0
  801f9d:	6a 00                	push   $0x0
  801f9f:	6a 00                	push   $0x0
  801fa1:	6a 00                	push   $0x0
  801fa3:	6a 00                	push   $0x0
  801fa5:	6a 29                	push   $0x29
  801fa7:	e8 1d fb ff ff       	call   801ac9 <syscall>
  801fac:	83 c4 18             	add    $0x18,%esp
}
  801faf:	c9                   	leave  
  801fb0:	c3                   	ret    

00801fb1 <sys_isUHeapPlacementStrategyFIRSTFIT>:


//2015
uint32 sys_isUHeapPlacementStrategyFIRSTFIT()
{
  801fb1:	55                   	push   %ebp
  801fb2:	89 e5                	mov    %esp,%ebp
  801fb4:	83 ec 10             	sub    $0x10,%esp
	uint32 ret = syscall(SYS_get_heap_strategy, 0, 0, 0, 0, 0);
  801fb7:	6a 00                	push   $0x0
  801fb9:	6a 00                	push   $0x0
  801fbb:	6a 00                	push   $0x0
  801fbd:	6a 00                	push   $0x0
  801fbf:	6a 00                	push   $0x0
  801fc1:	6a 2a                	push   $0x2a
  801fc3:	e8 01 fb ff ff       	call   801ac9 <syscall>
  801fc8:	83 c4 18             	add    $0x18,%esp
  801fcb:	89 45 fc             	mov    %eax,-0x4(%ebp)
	if (ret == UHP_PLACE_FIRSTFIT)
  801fce:	83 7d fc 01          	cmpl   $0x1,-0x4(%ebp)
  801fd2:	75 07                	jne    801fdb <sys_isUHeapPlacementStrategyFIRSTFIT+0x2a>
		return 1;
  801fd4:	b8 01 00 00 00       	mov    $0x1,%eax
  801fd9:	eb 05                	jmp    801fe0 <sys_isUHeapPlacementStrategyFIRSTFIT+0x2f>
	else
		return 0;
  801fdb:	b8 00 00 00 00       	mov    $0x0,%eax
}
  801fe0:	c9                   	leave  
  801fe1:	c3                   	ret    

00801fe2 <sys_isUHeapPlacementStrategyBESTFIT>:
uint32 sys_isUHeapPlacementStrategyBESTFIT()
{
  801fe2:	55                   	push   %ebp
  801fe3:	89 e5                	mov    %esp,%ebp
  801fe5:	83 ec 10             	sub    $0x10,%esp
	uint32 ret = syscall(SYS_get_heap_strategy, 0, 0, 0, 0, 0);
  801fe8:	6a 00                	push   $0x0
  801fea:	6a 00                	push   $0x0
  801fec:	6a 00                	push   $0x0
  801fee:	6a 00                	push   $0x0
  801ff0:	6a 00                	push   $0x0
  801ff2:	6a 2a                	push   $0x2a
  801ff4:	e8 d0 fa ff ff       	call   801ac9 <syscall>
  801ff9:	83 c4 18             	add    $0x18,%esp
  801ffc:	89 45 fc             	mov    %eax,-0x4(%ebp)
	if (ret == UHP_PLACE_BESTFIT)
  801fff:	83 7d fc 02          	cmpl   $0x2,-0x4(%ebp)
  802003:	75 07                	jne    80200c <sys_isUHeapPlacementStrategyBESTFIT+0x2a>
		return 1;
  802005:	b8 01 00 00 00       	mov    $0x1,%eax
  80200a:	eb 05                	jmp    802011 <sys_isUHeapPlacementStrategyBESTFIT+0x2f>
	else
		return 0;
  80200c:	b8 00 00 00 00       	mov    $0x0,%eax
}
  802011:	c9                   	leave  
  802012:	c3                   	ret    

00802013 <sys_isUHeapPlacementStrategyNEXTFIT>:
uint32 sys_isUHeapPlacementStrategyNEXTFIT()
{
  802013:	55                   	push   %ebp
  802014:	89 e5                	mov    %esp,%ebp
  802016:	83 ec 10             	sub    $0x10,%esp
	uint32 ret = syscall(SYS_get_heap_strategy, 0, 0, 0, 0, 0);
  802019:	6a 00                	push   $0x0
  80201b:	6a 00                	push   $0x0
  80201d:	6a 00                	push   $0x0
  80201f:	6a 00                	push   $0x0
  802021:	6a 00                	push   $0x0
  802023:	6a 2a                	push   $0x2a
  802025:	e8 9f fa ff ff       	call   801ac9 <syscall>
  80202a:	83 c4 18             	add    $0x18,%esp
  80202d:	89 45 fc             	mov    %eax,-0x4(%ebp)
	if (ret == UHP_PLACE_NEXTFIT)
  802030:	83 7d fc 03          	cmpl   $0x3,-0x4(%ebp)
  802034:	75 07                	jne    80203d <sys_isUHeapPlacementStrategyNEXTFIT+0x2a>
		return 1;
  802036:	b8 01 00 00 00       	mov    $0x1,%eax
  80203b:	eb 05                	jmp    802042 <sys_isUHeapPlacementStrategyNEXTFIT+0x2f>
	else
		return 0;
  80203d:	b8 00 00 00 00       	mov    $0x0,%eax
}
  802042:	c9                   	leave  
  802043:	c3                   	ret    

00802044 <sys_isUHeapPlacementStrategyWORSTFIT>:
uint32 sys_isUHeapPlacementStrategyWORSTFIT()
{
  802044:	55                   	push   %ebp
  802045:	89 e5                	mov    %esp,%ebp
  802047:	83 ec 10             	sub    $0x10,%esp
	uint32 ret = syscall(SYS_get_heap_strategy, 0, 0, 0, 0, 0);
  80204a:	6a 00                	push   $0x0
  80204c:	6a 00                	push   $0x0
  80204e:	6a 00                	push   $0x0
  802050:	6a 00                	push   $0x0
  802052:	6a 00                	push   $0x0
  802054:	6a 2a                	push   $0x2a
  802056:	e8 6e fa ff ff       	call   801ac9 <syscall>
  80205b:	83 c4 18             	add    $0x18,%esp
  80205e:	89 45 fc             	mov    %eax,-0x4(%ebp)
	if (ret == UHP_PLACE_WORSTFIT)
  802061:	83 7d fc 04          	cmpl   $0x4,-0x4(%ebp)
  802065:	75 07                	jne    80206e <sys_isUHeapPlacementStrategyWORSTFIT+0x2a>
		return 1;
  802067:	b8 01 00 00 00       	mov    $0x1,%eax
  80206c:	eb 05                	jmp    802073 <sys_isUHeapPlacementStrategyWORSTFIT+0x2f>
	else
		return 0;
  80206e:	b8 00 00 00 00       	mov    $0x0,%eax
}
  802073:	c9                   	leave  
  802074:	c3                   	ret    

00802075 <sys_set_uheap_strategy>:

void sys_set_uheap_strategy(uint32 heapStrategy)
{
  802075:	55                   	push   %ebp
  802076:	89 e5                	mov    %esp,%ebp
	syscall(SYS_set_heap_strategy, heapStrategy, 0, 0, 0, 0);
  802078:	6a 00                	push   $0x0
  80207a:	6a 00                	push   $0x0
  80207c:	6a 00                	push   $0x0
  80207e:	6a 00                	push   $0x0
  802080:	ff 75 08             	pushl  0x8(%ebp)
  802083:	6a 2b                	push   $0x2b
  802085:	e8 3f fa ff ff       	call   801ac9 <syscall>
  80208a:	83 c4 18             	add    $0x18,%esp
	return ;
  80208d:	90                   	nop
}
  80208e:	c9                   	leave  
  80208f:	c3                   	ret    

00802090 <sys_check_LRU_lists>:

//2020
int sys_check_LRU_lists(uint32* active_list_content, uint32* second_list_content, int actual_active_list_size, int actual_second_list_size)
{
  802090:	55                   	push   %ebp
  802091:	89 e5                	mov    %esp,%ebp
  802093:	53                   	push   %ebx
	return syscall(SYS_check_LRU_lists, (uint32)active_list_content, (uint32)second_list_content, (uint32)actual_active_list_size, (uint32)actual_second_list_size, 0);
  802094:	8b 5d 14             	mov    0x14(%ebp),%ebx
  802097:	8b 4d 10             	mov    0x10(%ebp),%ecx
  80209a:	8b 55 0c             	mov    0xc(%ebp),%edx
  80209d:	8b 45 08             	mov    0x8(%ebp),%eax
  8020a0:	6a 00                	push   $0x0
  8020a2:	53                   	push   %ebx
  8020a3:	51                   	push   %ecx
  8020a4:	52                   	push   %edx
  8020a5:	50                   	push   %eax
  8020a6:	6a 2c                	push   $0x2c
  8020a8:	e8 1c fa ff ff       	call   801ac9 <syscall>
  8020ad:	83 c4 18             	add    $0x18,%esp
}
  8020b0:	8b 5d fc             	mov    -0x4(%ebp),%ebx
  8020b3:	c9                   	leave  
  8020b4:	c3                   	ret    

008020b5 <sys_check_LRU_lists_free>:

int sys_check_LRU_lists_free(uint32* list_content, int list_size)
{
  8020b5:	55                   	push   %ebp
  8020b6:	89 e5                	mov    %esp,%ebp
	return syscall(SYS_check_LRU_lists_free, (uint32)list_content, (uint32)list_size , 0, 0, 0);
  8020b8:	8b 55 0c             	mov    0xc(%ebp),%edx
  8020bb:	8b 45 08             	mov    0x8(%ebp),%eax
  8020be:	6a 00                	push   $0x0
  8020c0:	6a 00                	push   $0x0
  8020c2:	6a 00                	push   $0x0
  8020c4:	52                   	push   %edx
  8020c5:	50                   	push   %eax
  8020c6:	6a 2d                	push   $0x2d
  8020c8:	e8 fc f9 ff ff       	call   801ac9 <syscall>
  8020cd:	83 c4 18             	add    $0x18,%esp
}
  8020d0:	c9                   	leave  
  8020d1:	c3                   	ret    

008020d2 <sys_check_WS_list>:

int sys_check_WS_list(uint32* WS_list_content, int actual_WS_list_size, uint32 last_WS_element_content, bool chk_in_order)
{
  8020d2:	55                   	push   %ebp
  8020d3:	89 e5                	mov    %esp,%ebp
	return syscall(SYS_check_WS_list, (uint32)WS_list_content, (uint32)actual_WS_list_size , last_WS_element_content, (uint32)chk_in_order, 0);
  8020d5:	8b 4d 14             	mov    0x14(%ebp),%ecx
  8020d8:	8b 55 0c             	mov    0xc(%ebp),%edx
  8020db:	8b 45 08             	mov    0x8(%ebp),%eax
  8020de:	6a 00                	push   $0x0
  8020e0:	51                   	push   %ecx
  8020e1:	ff 75 10             	pushl  0x10(%ebp)
  8020e4:	52                   	push   %edx
  8020e5:	50                   	push   %eax
  8020e6:	6a 2e                	push   $0x2e
  8020e8:	e8 dc f9 ff ff       	call   801ac9 <syscall>
  8020ed:	83 c4 18             	add    $0x18,%esp
}
  8020f0:	c9                   	leave  
  8020f1:	c3                   	ret    

008020f2 <sys_allocate_chunk>:
void sys_allocate_chunk(uint32 virtual_address, uint32 size, uint32 perms)
{
  8020f2:	55                   	push   %ebp
  8020f3:	89 e5                	mov    %esp,%ebp
	syscall(SYS_allocate_chunk_in_mem, virtual_address, size, perms, 0, 0);
  8020f5:	6a 00                	push   $0x0
  8020f7:	6a 00                	push   $0x0
  8020f9:	ff 75 10             	pushl  0x10(%ebp)
  8020fc:	ff 75 0c             	pushl  0xc(%ebp)
  8020ff:	ff 75 08             	pushl  0x8(%ebp)
  802102:	6a 0f                	push   $0xf
  802104:	e8 c0 f9 ff ff       	call   801ac9 <syscall>
  802109:	83 c4 18             	add    $0x18,%esp
	return ;
  80210c:	90                   	nop
}
  80210d:	c9                   	leave  
  80210e:	c3                   	ret    

0080210f <sys_sbrk>:


/*2023*/
//TODO: [PROJECT'23.MS1 - #3] [2] SYSTEM CALLS - Implement these system calls
void* sys_sbrk(int increment)
{
  80210f:	55                   	push   %ebp
  802110:	89 e5                	mov    %esp,%ebp
	//Comment the following line before start coding...
	//panic("not implemented yet");
	return (void*)syscall(SYS_sbrk, increment, 0, 0, 0, 0);
  802112:	8b 45 08             	mov    0x8(%ebp),%eax
  802115:	6a 00                	push   $0x0
  802117:	6a 00                	push   $0x0
  802119:	6a 00                	push   $0x0
  80211b:	6a 00                	push   $0x0
  80211d:	50                   	push   %eax
  80211e:	6a 2f                	push   $0x2f
  802120:	e8 a4 f9 ff ff       	call   801ac9 <syscall>
  802125:	83 c4 18             	add    $0x18,%esp

}
  802128:	c9                   	leave  
  802129:	c3                   	ret    

0080212a <sys_free_user_mem>:

void sys_free_user_mem(uint32 virtual_address, uint32 size)
{
  80212a:	55                   	push   %ebp
  80212b:	89 e5                	mov    %esp,%ebp
	//Comment the following line before start coding...
	//panic("not implemented yet");
	syscall(SYS_free_user_mem,virtual_address, size,0,0,0);
  80212d:	6a 00                	push   $0x0
  80212f:	6a 00                	push   $0x0
  802131:	6a 00                	push   $0x0
  802133:	ff 75 0c             	pushl  0xc(%ebp)
  802136:	ff 75 08             	pushl  0x8(%ebp)
  802139:	6a 30                	push   $0x30
  80213b:	e8 89 f9 ff ff       	call   801ac9 <syscall>
  802140:	83 c4 18             	add    $0x18,%esp
	return;
  802143:	90                   	nop
}
  802144:	c9                   	leave  
  802145:	c3                   	ret    

00802146 <sys_allocate_user_mem>:

void sys_allocate_user_mem(uint32 virtual_address, uint32 size)
{
  802146:	55                   	push   %ebp
  802147:	89 e5                	mov    %esp,%ebp
	//Comment the following line before start coding...
	//panic("not implemented yet");
	syscall(SYS_allocate_user_mem,virtual_address, size,0,0,0);
  802149:	6a 00                	push   $0x0
  80214b:	6a 00                	push   $0x0
  80214d:	6a 00                	push   $0x0
  80214f:	ff 75 0c             	pushl  0xc(%ebp)
  802152:	ff 75 08             	pushl  0x8(%ebp)
  802155:	6a 31                	push   $0x31
  802157:	e8 6d f9 ff ff       	call   801ac9 <syscall>
  80215c:	83 c4 18             	add    $0x18,%esp
	return;
  80215f:	90                   	nop
}
  802160:	c9                   	leave  
  802161:	c3                   	ret    

00802162 <sys_get_hard_limit>:

uint32 sys_get_hard_limit(){
  802162:	55                   	push   %ebp
  802163:	89 e5                	mov    %esp,%ebp
	return syscall(SYS_get_hard_limit,0,0,0,0,0);
  802165:	6a 00                	push   $0x0
  802167:	6a 00                	push   $0x0
  802169:	6a 00                	push   $0x0
  80216b:	6a 00                	push   $0x0
  80216d:	6a 00                	push   $0x0
  80216f:	6a 32                	push   $0x32
  802171:	e8 53 f9 ff ff       	call   801ac9 <syscall>
  802176:	83 c4 18             	add    $0x18,%esp
}
  802179:	c9                   	leave  
  80217a:	c3                   	ret    

0080217b <sys_env_set_nice>:

void sys_env_set_nice(int nice){
  80217b:	55                   	push   %ebp
  80217c:	89 e5                	mov    %esp,%ebp
	syscall(SYS_env_set_nice,nice,0,0,0,0);
  80217e:	8b 45 08             	mov    0x8(%ebp),%eax
  802181:	6a 00                	push   $0x0
  802183:	6a 00                	push   $0x0
  802185:	6a 00                	push   $0x0
  802187:	6a 00                	push   $0x0
  802189:	50                   	push   %eax
  80218a:	6a 33                	push   $0x33
  80218c:	e8 38 f9 ff ff       	call   801ac9 <syscall>
  802191:	83 c4 18             	add    $0x18,%esp
}
  802194:	90                   	nop
  802195:	c9                   	leave  
  802196:	c3                   	ret    

00802197 <get_block_size>:

//=====================================================
// 1) GET BLOCK SIZE (including size of its meta data):
//=====================================================
uint32 get_block_size(void* va)
{
  802197:	55                   	push   %ebp
  802198:	89 e5                	mov    %esp,%ebp
  80219a:	83 ec 10             	sub    $0x10,%esp
	struct BlockMetaData *curBlkMetaData = ((struct BlockMetaData *) va - 1);
  80219d:	8b 45 08             	mov    0x8(%ebp),%eax
  8021a0:	83 e8 10             	sub    $0x10,%eax
  8021a3:	89 45 fc             	mov    %eax,-0x4(%ebp)
	return curBlkMetaData->size;
  8021a6:	8b 45 fc             	mov    -0x4(%ebp),%eax
  8021a9:	8b 00                	mov    (%eax),%eax
}
  8021ab:	c9                   	leave  
  8021ac:	c3                   	ret    

008021ad <is_free_block>:

//===========================
// 2) GET BLOCK STATUS:
//===========================
int8 is_free_block(void* va)
{
  8021ad:	55                   	push   %ebp
  8021ae:	89 e5                	mov    %esp,%ebp
  8021b0:	83 ec 10             	sub    $0x10,%esp
	struct BlockMetaData *curBlkMetaData = ((struct BlockMetaData *) va - 1);
  8021b3:	8b 45 08             	mov    0x8(%ebp),%eax
  8021b6:	83 e8 10             	sub    $0x10,%eax
  8021b9:	89 45 fc             	mov    %eax,-0x4(%ebp)
	return curBlkMetaData->is_free;
  8021bc:	8b 45 fc             	mov    -0x4(%ebp),%eax
  8021bf:	8a 40 04             	mov    0x4(%eax),%al
}
  8021c2:	c9                   	leave  
  8021c3:	c3                   	ret    

008021c4 <alloc_block>:

//===========================================
// 3) ALLOCATE BLOCK BASED ON GIVEN STRATEGY:
//===========================================
void *alloc_block(uint32 size, int ALLOC_STRATEGY)
{
  8021c4:	55                   	push   %ebp
  8021c5:	89 e5                	mov    %esp,%ebp
  8021c7:	83 ec 18             	sub    $0x18,%esp
	void *va = NULL;
  8021ca:	c7 45 f4 00 00 00 00 	movl   $0x0,-0xc(%ebp)
	switch (ALLOC_STRATEGY)
  8021d1:	8b 45 0c             	mov    0xc(%ebp),%eax
  8021d4:	83 f8 02             	cmp    $0x2,%eax
  8021d7:	74 2b                	je     802204 <alloc_block+0x40>
  8021d9:	83 f8 02             	cmp    $0x2,%eax
  8021dc:	7f 07                	jg     8021e5 <alloc_block+0x21>
  8021de:	83 f8 01             	cmp    $0x1,%eax
  8021e1:	74 0e                	je     8021f1 <alloc_block+0x2d>
  8021e3:	eb 58                	jmp    80223d <alloc_block+0x79>
  8021e5:	83 f8 03             	cmp    $0x3,%eax
  8021e8:	74 2d                	je     802217 <alloc_block+0x53>
  8021ea:	83 f8 04             	cmp    $0x4,%eax
  8021ed:	74 3b                	je     80222a <alloc_block+0x66>
  8021ef:	eb 4c                	jmp    80223d <alloc_block+0x79>
	{
	case DA_FF:
		va = alloc_block_FF(size);
  8021f1:	83 ec 0c             	sub    $0xc,%esp
  8021f4:	ff 75 08             	pushl  0x8(%ebp)
  8021f7:	e8 95 01 00 00       	call   802391 <alloc_block_FF>
  8021fc:	83 c4 10             	add    $0x10,%esp
  8021ff:	89 45 f4             	mov    %eax,-0xc(%ebp)
		break;
  802202:	eb 4a                	jmp    80224e <alloc_block+0x8a>
	case DA_NF:
		va = alloc_block_NF(size);
  802204:	83 ec 0c             	sub    $0xc,%esp
  802207:	ff 75 08             	pushl  0x8(%ebp)
  80220a:	e8 32 07 00 00       	call   802941 <alloc_block_NF>
  80220f:	83 c4 10             	add    $0x10,%esp
  802212:	89 45 f4             	mov    %eax,-0xc(%ebp)
		break;
  802215:	eb 37                	jmp    80224e <alloc_block+0x8a>
	case DA_BF:
		va = alloc_block_BF(size);
  802217:	83 ec 0c             	sub    $0xc,%esp
  80221a:	ff 75 08             	pushl  0x8(%ebp)
  80221d:	e8 a3 04 00 00       	call   8026c5 <alloc_block_BF>
  802222:	83 c4 10             	add    $0x10,%esp
  802225:	89 45 f4             	mov    %eax,-0xc(%ebp)
		break;
  802228:	eb 24                	jmp    80224e <alloc_block+0x8a>
	case DA_WF:
		va = alloc_block_WF(size);
  80222a:	83 ec 0c             	sub    $0xc,%esp
  80222d:	ff 75 08             	pushl  0x8(%ebp)
  802230:	e8 ef 06 00 00       	call   802924 <alloc_block_WF>
  802235:	83 c4 10             	add    $0x10,%esp
  802238:	89 45 f4             	mov    %eax,-0xc(%ebp)
		break;
  80223b:	eb 11                	jmp    80224e <alloc_block+0x8a>
	default:
		cprintf("Invalid allocation strategy\n");
  80223d:	83 ec 0c             	sub    $0xc,%esp
  802240:	68 c4 42 80 00       	push   $0x8042c4
  802245:	e8 23 e7 ff ff       	call   80096d <cprintf>
  80224a:	83 c4 10             	add    $0x10,%esp
		break;
  80224d:	90                   	nop
	}
	return va;
  80224e:	8b 45 f4             	mov    -0xc(%ebp),%eax
}
  802251:	c9                   	leave  
  802252:	c3                   	ret    

00802253 <print_blocks_list>:
//===========================
// 4) PRINT BLOCKS LIST:
//===========================

void print_blocks_list(struct MemBlock_LIST list)
{
  802253:	55                   	push   %ebp
  802254:	89 e5                	mov    %esp,%ebp
  802256:	83 ec 18             	sub    $0x18,%esp
	cprintf("=========================================\n");
  802259:	83 ec 0c             	sub    $0xc,%esp
  80225c:	68 e4 42 80 00       	push   $0x8042e4
  802261:	e8 07 e7 ff ff       	call   80096d <cprintf>
  802266:	83 c4 10             	add    $0x10,%esp
	struct BlockMetaData* blk;
	cprintf("\nDynAlloc Blocks List:\n");
  802269:	83 ec 0c             	sub    $0xc,%esp
  80226c:	68 0f 43 80 00       	push   $0x80430f
  802271:	e8 f7 e6 ff ff       	call   80096d <cprintf>
  802276:	83 c4 10             	add    $0x10,%esp
	LIST_FOREACH(blk, &list)
  802279:	8b 45 08             	mov    0x8(%ebp),%eax
  80227c:	89 45 f4             	mov    %eax,-0xc(%ebp)
  80227f:	eb 26                	jmp    8022a7 <print_blocks_list+0x54>
	{
		cprintf("(size: %d, isFree: %d)\n", blk->size, blk->is_free);
  802281:	8b 45 f4             	mov    -0xc(%ebp),%eax
  802284:	8a 40 04             	mov    0x4(%eax),%al
  802287:	0f b6 d0             	movzbl %al,%edx
  80228a:	8b 45 f4             	mov    -0xc(%ebp),%eax
  80228d:	8b 00                	mov    (%eax),%eax
  80228f:	83 ec 04             	sub    $0x4,%esp
  802292:	52                   	push   %edx
  802293:	50                   	push   %eax
  802294:	68 27 43 80 00       	push   $0x804327
  802299:	e8 cf e6 ff ff       	call   80096d <cprintf>
  80229e:	83 c4 10             	add    $0x10,%esp
void print_blocks_list(struct MemBlock_LIST list)
{
	cprintf("=========================================\n");
	struct BlockMetaData* blk;
	cprintf("\nDynAlloc Blocks List:\n");
	LIST_FOREACH(blk, &list)
  8022a1:	8b 45 10             	mov    0x10(%ebp),%eax
  8022a4:	89 45 f4             	mov    %eax,-0xc(%ebp)
  8022a7:	83 7d f4 00          	cmpl   $0x0,-0xc(%ebp)
  8022ab:	74 08                	je     8022b5 <print_blocks_list+0x62>
  8022ad:	8b 45 f4             	mov    -0xc(%ebp),%eax
  8022b0:	8b 40 08             	mov    0x8(%eax),%eax
  8022b3:	eb 05                	jmp    8022ba <print_blocks_list+0x67>
  8022b5:	b8 00 00 00 00       	mov    $0x0,%eax
  8022ba:	89 45 10             	mov    %eax,0x10(%ebp)
  8022bd:	8b 45 10             	mov    0x10(%ebp),%eax
  8022c0:	85 c0                	test   %eax,%eax
  8022c2:	75 bd                	jne    802281 <print_blocks_list+0x2e>
  8022c4:	83 7d f4 00          	cmpl   $0x0,-0xc(%ebp)
  8022c8:	75 b7                	jne    802281 <print_blocks_list+0x2e>
	{
		cprintf("(size: %d, isFree: %d)\n", blk->size, blk->is_free);
	}
	cprintf("=========================================\n");
  8022ca:	83 ec 0c             	sub    $0xc,%esp
  8022cd:	68 e4 42 80 00       	push   $0x8042e4
  8022d2:	e8 96 e6 ff ff       	call   80096d <cprintf>
  8022d7:	83 c4 10             	add    $0x10,%esp

}
  8022da:	90                   	nop
  8022db:	c9                   	leave  
  8022dc:	c3                   	ret    

008022dd <initialize_dynamic_allocator>:
// [1] INITIALIZE DYNAMIC ALLOCATOR:
//==================================
bool is_initialized=0;
struct MemBlock_LIST list;
void initialize_dynamic_allocator(uint32 daStart,uint32 initSizeOfAllocatedSpace)
{
  8022dd:	55                   	push   %ebp
  8022de:	89 e5                	mov    %esp,%ebp
  8022e0:	83 ec 18             	sub    $0x18,%esp
	//=========================================
	//DON'T CHANGE THESE LINES=================
	if (initSizeOfAllocatedSpace == 0)
  8022e3:	83 7d 0c 00          	cmpl   $0x0,0xc(%ebp)
  8022e7:	0f 84 a1 00 00 00    	je     80238e <initialize_dynamic_allocator+0xb1>
		return;
	is_initialized=1;
  8022ed:	c7 05 2c 50 80 00 01 	movl   $0x1,0x80502c
  8022f4:	00 00 00 
	LIST_INIT(&list);
  8022f7:	c7 05 40 51 90 00 00 	movl   $0x0,0x905140
  8022fe:	00 00 00 
  802301:	c7 05 44 51 90 00 00 	movl   $0x0,0x905144
  802308:	00 00 00 
  80230b:	c7 05 4c 51 90 00 00 	movl   $0x0,0x90514c
  802312:	00 00 00 
	struct BlockMetaData* blk = (struct BlockMetaData *) daStart;
  802315:	8b 45 08             	mov    0x8(%ebp),%eax
  802318:	89 45 f4             	mov    %eax,-0xc(%ebp)
	blk->is_free = 1;
  80231b:	8b 45 f4             	mov    -0xc(%ebp),%eax
  80231e:	c6 40 04 01          	movb   $0x1,0x4(%eax)
	blk->size = initSizeOfAllocatedSpace;
  802322:	8b 45 f4             	mov    -0xc(%ebp),%eax
  802325:	8b 55 0c             	mov    0xc(%ebp),%edx
  802328:	89 10                	mov    %edx,(%eax)
	LIST_INSERT_TAIL(&list, blk);
  80232a:	83 7d f4 00          	cmpl   $0x0,-0xc(%ebp)
  80232e:	75 14                	jne    802344 <initialize_dynamic_allocator+0x67>
  802330:	83 ec 04             	sub    $0x4,%esp
  802333:	68 40 43 80 00       	push   $0x804340
  802338:	6a 64                	push   $0x64
  80233a:	68 63 43 80 00       	push   $0x804363
  80233f:	e8 d5 0f 00 00       	call   803319 <_panic>
  802344:	8b 15 44 51 90 00    	mov    0x905144,%edx
  80234a:	8b 45 f4             	mov    -0xc(%ebp),%eax
  80234d:	89 50 0c             	mov    %edx,0xc(%eax)
  802350:	8b 45 f4             	mov    -0xc(%ebp),%eax
  802353:	8b 40 0c             	mov    0xc(%eax),%eax
  802356:	85 c0                	test   %eax,%eax
  802358:	74 0d                	je     802367 <initialize_dynamic_allocator+0x8a>
  80235a:	a1 44 51 90 00       	mov    0x905144,%eax
  80235f:	8b 55 f4             	mov    -0xc(%ebp),%edx
  802362:	89 50 08             	mov    %edx,0x8(%eax)
  802365:	eb 08                	jmp    80236f <initialize_dynamic_allocator+0x92>
  802367:	8b 45 f4             	mov    -0xc(%ebp),%eax
  80236a:	a3 40 51 90 00       	mov    %eax,0x905140
  80236f:	8b 45 f4             	mov    -0xc(%ebp),%eax
  802372:	a3 44 51 90 00       	mov    %eax,0x905144
  802377:	8b 45 f4             	mov    -0xc(%ebp),%eax
  80237a:	c7 40 08 00 00 00 00 	movl   $0x0,0x8(%eax)
  802381:	a1 4c 51 90 00       	mov    0x90514c,%eax
  802386:	40                   	inc    %eax
  802387:	a3 4c 51 90 00       	mov    %eax,0x90514c
  80238c:	eb 01                	jmp    80238f <initialize_dynamic_allocator+0xb2>
void initialize_dynamic_allocator(uint32 daStart,uint32 initSizeOfAllocatedSpace)
{
	//=========================================
	//DON'T CHANGE THESE LINES=================
	if (initSizeOfAllocatedSpace == 0)
		return;
  80238e:	90                   	nop
	struct BlockMetaData* blk = (struct BlockMetaData *) daStart;
	blk->is_free = 1;
	blk->size = initSizeOfAllocatedSpace;
	LIST_INSERT_TAIL(&list, blk);

}
  80238f:	c9                   	leave  
  802390:	c3                   	ret    

00802391 <alloc_block_FF>:
//=========================================
// [4] ALLOCATE BLOCK BY FIRST FIT:
//=========================================
void *alloc_block_FF(uint32 size)
{
  802391:	55                   	push   %ebp
  802392:	89 e5                	mov    %esp,%ebp
  802394:	83 ec 38             	sub    $0x38,%esp

	//TODO: [PROJECT'23.MS1 - #6] [3] DYNAMIC ALLOCATOR - alloc_block_FF()
	//panic("alloc_block_FF is not implemented yet");

	struct BlockMetaData* iterator;
	if(size == 0)
  802397:	83 7d 08 00          	cmpl   $0x0,0x8(%ebp)
  80239b:	75 0a                	jne    8023a7 <alloc_block_FF+0x16>
	{
		return NULL;
  80239d:	b8 00 00 00 00       	mov    $0x0,%eax
  8023a2:	e9 1c 03 00 00       	jmp    8026c3 <alloc_block_FF+0x332>
	}
	if (!is_initialized)
  8023a7:	a1 2c 50 80 00       	mov    0x80502c,%eax
  8023ac:	85 c0                	test   %eax,%eax
  8023ae:	75 40                	jne    8023f0 <alloc_block_FF+0x5f>
	{
	uint32 required_size = size + sizeOfMetaData();
  8023b0:	8b 45 08             	mov    0x8(%ebp),%eax
  8023b3:	83 c0 10             	add    $0x10,%eax
  8023b6:	89 45 f0             	mov    %eax,-0x10(%ebp)
	uint32 da_start = (uint32)sbrk(required_size);
  8023b9:	8b 45 f0             	mov    -0x10(%ebp),%eax
  8023bc:	83 ec 0c             	sub    $0xc,%esp
  8023bf:	50                   	push   %eax
  8023c0:	e8 bb f3 ff ff       	call   801780 <sbrk>
  8023c5:	83 c4 10             	add    $0x10,%esp
  8023c8:	89 45 ec             	mov    %eax,-0x14(%ebp)
	//get new break since it's page aligned! thus, the size can be more than the required one
	uint32 da_break = (uint32)sbrk(0);
  8023cb:	83 ec 0c             	sub    $0xc,%esp
  8023ce:	6a 00                	push   $0x0
  8023d0:	e8 ab f3 ff ff       	call   801780 <sbrk>
  8023d5:	83 c4 10             	add    $0x10,%esp
  8023d8:	89 45 e8             	mov    %eax,-0x18(%ebp)
	initialize_dynamic_allocator(da_start, da_break - da_start);
  8023db:	8b 45 e8             	mov    -0x18(%ebp),%eax
  8023de:	2b 45 ec             	sub    -0x14(%ebp),%eax
  8023e1:	83 ec 08             	sub    $0x8,%esp
  8023e4:	50                   	push   %eax
  8023e5:	ff 75 ec             	pushl  -0x14(%ebp)
  8023e8:	e8 f0 fe ff ff       	call   8022dd <initialize_dynamic_allocator>
  8023ed:	83 c4 10             	add    $0x10,%esp
	}

	LIST_FOREACH(iterator, &list)
  8023f0:	a1 40 51 90 00       	mov    0x905140,%eax
  8023f5:	89 45 f4             	mov    %eax,-0xc(%ebp)
  8023f8:	e9 1e 01 00 00       	jmp    80251b <alloc_block_FF+0x18a>
	{
		if(size + sizeOfMetaData() == iterator->size && iterator->is_free==1)
  8023fd:	8b 45 08             	mov    0x8(%ebp),%eax
  802400:	8d 50 10             	lea    0x10(%eax),%edx
  802403:	8b 45 f4             	mov    -0xc(%ebp),%eax
  802406:	8b 00                	mov    (%eax),%eax
  802408:	39 c2                	cmp    %eax,%edx
  80240a:	75 1c                	jne    802428 <alloc_block_FF+0x97>
  80240c:	8b 45 f4             	mov    -0xc(%ebp),%eax
  80240f:	8a 40 04             	mov    0x4(%eax),%al
  802412:	3c 01                	cmp    $0x1,%al
  802414:	75 12                	jne    802428 <alloc_block_FF+0x97>
		{
			iterator->is_free = 0;
  802416:	8b 45 f4             	mov    -0xc(%ebp),%eax
  802419:	c6 40 04 00          	movb   $0x0,0x4(%eax)
			return iterator+1;
  80241d:	8b 45 f4             	mov    -0xc(%ebp),%eax
  802420:	83 c0 10             	add    $0x10,%eax
  802423:	e9 9b 02 00 00       	jmp    8026c3 <alloc_block_FF+0x332>
		}

		else if (size + sizeOfMetaData() < iterator->size && iterator->is_free==1)
  802428:	8b 45 08             	mov    0x8(%ebp),%eax
  80242b:	8d 50 10             	lea    0x10(%eax),%edx
  80242e:	8b 45 f4             	mov    -0xc(%ebp),%eax
  802431:	8b 00                	mov    (%eax),%eax
  802433:	39 c2                	cmp    %eax,%edx
  802435:	0f 83 d8 00 00 00    	jae    802513 <alloc_block_FF+0x182>
  80243b:	8b 45 f4             	mov    -0xc(%ebp),%eax
  80243e:	8a 40 04             	mov    0x4(%eax),%al
  802441:	3c 01                	cmp    $0x1,%al
  802443:	0f 85 ca 00 00 00    	jne    802513 <alloc_block_FF+0x182>
		{

			if(iterator->size - (size + sizeOfMetaData()) >= sizeOfMetaData())
  802449:	8b 45 f4             	mov    -0xc(%ebp),%eax
  80244c:	8b 00                	mov    (%eax),%eax
  80244e:	2b 45 08             	sub    0x8(%ebp),%eax
  802451:	83 e8 10             	sub    $0x10,%eax
  802454:	83 f8 0f             	cmp    $0xf,%eax
  802457:	0f 86 a4 00 00 00    	jbe    802501 <alloc_block_FF+0x170>
			{
			struct BlockMetaData *newBlockAfterSplit = (struct BlockMetaData *)((uint32)iterator + size + sizeOfMetaData());
  80245d:	8b 55 f4             	mov    -0xc(%ebp),%edx
  802460:	8b 45 08             	mov    0x8(%ebp),%eax
  802463:	01 d0                	add    %edx,%eax
  802465:	83 c0 10             	add    $0x10,%eax
  802468:	89 45 d0             	mov    %eax,-0x30(%ebp)
			newBlockAfterSplit->size = iterator->size - (size + sizeOfMetaData()) ;
  80246b:	8b 45 f4             	mov    -0xc(%ebp),%eax
  80246e:	8b 00                	mov    (%eax),%eax
  802470:	2b 45 08             	sub    0x8(%ebp),%eax
  802473:	8d 50 f0             	lea    -0x10(%eax),%edx
  802476:	8b 45 d0             	mov    -0x30(%ebp),%eax
  802479:	89 10                	mov    %edx,(%eax)
			newBlockAfterSplit->is_free=1;
  80247b:	8b 45 d0             	mov    -0x30(%ebp),%eax
  80247e:	c6 40 04 01          	movb   $0x1,0x4(%eax)

		    LIST_INSERT_AFTER(&list, iterator, newBlockAfterSplit);
  802482:	83 7d f4 00          	cmpl   $0x0,-0xc(%ebp)
  802486:	74 06                	je     80248e <alloc_block_FF+0xfd>
  802488:	83 7d d0 00          	cmpl   $0x0,-0x30(%ebp)
  80248c:	75 17                	jne    8024a5 <alloc_block_FF+0x114>
  80248e:	83 ec 04             	sub    $0x4,%esp
  802491:	68 7c 43 80 00       	push   $0x80437c
  802496:	68 8f 00 00 00       	push   $0x8f
  80249b:	68 63 43 80 00       	push   $0x804363
  8024a0:	e8 74 0e 00 00       	call   803319 <_panic>
  8024a5:	8b 45 f4             	mov    -0xc(%ebp),%eax
  8024a8:	8b 50 08             	mov    0x8(%eax),%edx
  8024ab:	8b 45 d0             	mov    -0x30(%ebp),%eax
  8024ae:	89 50 08             	mov    %edx,0x8(%eax)
  8024b1:	8b 45 d0             	mov    -0x30(%ebp),%eax
  8024b4:	8b 40 08             	mov    0x8(%eax),%eax
  8024b7:	85 c0                	test   %eax,%eax
  8024b9:	74 0c                	je     8024c7 <alloc_block_FF+0x136>
  8024bb:	8b 45 f4             	mov    -0xc(%ebp),%eax
  8024be:	8b 40 08             	mov    0x8(%eax),%eax
  8024c1:	8b 55 d0             	mov    -0x30(%ebp),%edx
  8024c4:	89 50 0c             	mov    %edx,0xc(%eax)
  8024c7:	8b 45 f4             	mov    -0xc(%ebp),%eax
  8024ca:	8b 55 d0             	mov    -0x30(%ebp),%edx
  8024cd:	89 50 08             	mov    %edx,0x8(%eax)
  8024d0:	8b 45 d0             	mov    -0x30(%ebp),%eax
  8024d3:	8b 55 f4             	mov    -0xc(%ebp),%edx
  8024d6:	89 50 0c             	mov    %edx,0xc(%eax)
  8024d9:	8b 45 d0             	mov    -0x30(%ebp),%eax
  8024dc:	8b 40 08             	mov    0x8(%eax),%eax
  8024df:	85 c0                	test   %eax,%eax
  8024e1:	75 08                	jne    8024eb <alloc_block_FF+0x15a>
  8024e3:	8b 45 d0             	mov    -0x30(%ebp),%eax
  8024e6:	a3 44 51 90 00       	mov    %eax,0x905144
  8024eb:	a1 4c 51 90 00       	mov    0x90514c,%eax
  8024f0:	40                   	inc    %eax
  8024f1:	a3 4c 51 90 00       	mov    %eax,0x90514c
		    iterator->size = size + sizeOfMetaData();
  8024f6:	8b 45 08             	mov    0x8(%ebp),%eax
  8024f9:	8d 50 10             	lea    0x10(%eax),%edx
  8024fc:	8b 45 f4             	mov    -0xc(%ebp),%eax
  8024ff:	89 10                	mov    %edx,(%eax)

			}
			iterator->is_free =0;
  802501:	8b 45 f4             	mov    -0xc(%ebp),%eax
  802504:	c6 40 04 00          	movb   $0x0,0x4(%eax)
		    return iterator+1;
  802508:	8b 45 f4             	mov    -0xc(%ebp),%eax
  80250b:	83 c0 10             	add    $0x10,%eax
  80250e:	e9 b0 01 00 00       	jmp    8026c3 <alloc_block_FF+0x332>
	//get new break since it's page aligned! thus, the size can be more than the required one
	uint32 da_break = (uint32)sbrk(0);
	initialize_dynamic_allocator(da_start, da_break - da_start);
	}

	LIST_FOREACH(iterator, &list)
  802513:	a1 48 51 90 00       	mov    0x905148,%eax
  802518:	89 45 f4             	mov    %eax,-0xc(%ebp)
  80251b:	83 7d f4 00          	cmpl   $0x0,-0xc(%ebp)
  80251f:	74 08                	je     802529 <alloc_block_FF+0x198>
  802521:	8b 45 f4             	mov    -0xc(%ebp),%eax
  802524:	8b 40 08             	mov    0x8(%eax),%eax
  802527:	eb 05                	jmp    80252e <alloc_block_FF+0x19d>
  802529:	b8 00 00 00 00       	mov    $0x0,%eax
  80252e:	a3 48 51 90 00       	mov    %eax,0x905148
  802533:	a1 48 51 90 00       	mov    0x905148,%eax
  802538:	85 c0                	test   %eax,%eax
  80253a:	0f 85 bd fe ff ff    	jne    8023fd <alloc_block_FF+0x6c>
  802540:	83 7d f4 00          	cmpl   $0x0,-0xc(%ebp)
  802544:	0f 85 b3 fe ff ff    	jne    8023fd <alloc_block_FF+0x6c>
			}
			iterator->is_free =0;
		    return iterator+1;
		}
	}
	void * oldbrk = sbrk(size + sizeOfMetaData());
  80254a:	8b 45 08             	mov    0x8(%ebp),%eax
  80254d:	83 c0 10             	add    $0x10,%eax
  802550:	83 ec 0c             	sub    $0xc,%esp
  802553:	50                   	push   %eax
  802554:	e8 27 f2 ff ff       	call   801780 <sbrk>
  802559:	83 c4 10             	add    $0x10,%esp
  80255c:	89 45 e4             	mov    %eax,-0x1c(%ebp)
	void* newbrk = sbrk(0);
  80255f:	83 ec 0c             	sub    $0xc,%esp
  802562:	6a 00                	push   $0x0
  802564:	e8 17 f2 ff ff       	call   801780 <sbrk>
  802569:	83 c4 10             	add    $0x10,%esp
  80256c:	89 45 e0             	mov    %eax,-0x20(%ebp)

	uint32 brksz= ((uint32)newbrk - (uint32)oldbrk);
  80256f:	8b 55 e0             	mov    -0x20(%ebp),%edx
  802572:	8b 45 e4             	mov    -0x1c(%ebp),%eax
  802575:	29 c2                	sub    %eax,%edx
  802577:	89 d0                	mov    %edx,%eax
  802579:	89 45 dc             	mov    %eax,-0x24(%ebp)

		if( oldbrk != (void*)-1)
  80257c:	83 7d e4 ff          	cmpl   $0xffffffff,-0x1c(%ebp)
  802580:	0f 84 38 01 00 00    	je     8026be <alloc_block_FF+0x32d>
		 {
			struct BlockMetaData* newBlock = (struct BlockMetaData*)(oldbrk);
  802586:	8b 45 e4             	mov    -0x1c(%ebp),%eax
  802589:	89 45 d8             	mov    %eax,-0x28(%ebp)
			LIST_INSERT_TAIL(&list, newBlock);
  80258c:	83 7d d8 00          	cmpl   $0x0,-0x28(%ebp)
  802590:	75 17                	jne    8025a9 <alloc_block_FF+0x218>
  802592:	83 ec 04             	sub    $0x4,%esp
  802595:	68 40 43 80 00       	push   $0x804340
  80259a:	68 9f 00 00 00       	push   $0x9f
  80259f:	68 63 43 80 00       	push   $0x804363
  8025a4:	e8 70 0d 00 00       	call   803319 <_panic>
  8025a9:	8b 15 44 51 90 00    	mov    0x905144,%edx
  8025af:	8b 45 d8             	mov    -0x28(%ebp),%eax
  8025b2:	89 50 0c             	mov    %edx,0xc(%eax)
  8025b5:	8b 45 d8             	mov    -0x28(%ebp),%eax
  8025b8:	8b 40 0c             	mov    0xc(%eax),%eax
  8025bb:	85 c0                	test   %eax,%eax
  8025bd:	74 0d                	je     8025cc <alloc_block_FF+0x23b>
  8025bf:	a1 44 51 90 00       	mov    0x905144,%eax
  8025c4:	8b 55 d8             	mov    -0x28(%ebp),%edx
  8025c7:	89 50 08             	mov    %edx,0x8(%eax)
  8025ca:	eb 08                	jmp    8025d4 <alloc_block_FF+0x243>
  8025cc:	8b 45 d8             	mov    -0x28(%ebp),%eax
  8025cf:	a3 40 51 90 00       	mov    %eax,0x905140
  8025d4:	8b 45 d8             	mov    -0x28(%ebp),%eax
  8025d7:	a3 44 51 90 00       	mov    %eax,0x905144
  8025dc:	8b 45 d8             	mov    -0x28(%ebp),%eax
  8025df:	c7 40 08 00 00 00 00 	movl   $0x0,0x8(%eax)
  8025e6:	a1 4c 51 90 00       	mov    0x90514c,%eax
  8025eb:	40                   	inc    %eax
  8025ec:	a3 4c 51 90 00       	mov    %eax,0x90514c
			newBlock->size = size + sizeOfMetaData();
  8025f1:	8b 45 08             	mov    0x8(%ebp),%eax
  8025f4:	8d 50 10             	lea    0x10(%eax),%edx
  8025f7:	8b 45 d8             	mov    -0x28(%ebp),%eax
  8025fa:	89 10                	mov    %edx,(%eax)
			newBlock->is_free = 0;
  8025fc:	8b 45 d8             	mov    -0x28(%ebp),%eax
  8025ff:	c6 40 04 00          	movb   $0x0,0x4(%eax)
			if(brksz -(size + sizeOfMetaData()) != 0)
  802603:	8b 45 dc             	mov    -0x24(%ebp),%eax
  802606:	2b 45 08             	sub    0x8(%ebp),%eax
  802609:	83 f8 10             	cmp    $0x10,%eax
  80260c:	0f 84 a4 00 00 00    	je     8026b6 <alloc_block_FF+0x325>
			{
				if(brksz -(size + sizeOfMetaData()) >= sizeOfMetaData())
  802612:	8b 45 dc             	mov    -0x24(%ebp),%eax
  802615:	2b 45 08             	sub    0x8(%ebp),%eax
  802618:	83 e8 10             	sub    $0x10,%eax
  80261b:	83 f8 0f             	cmp    $0xf,%eax
  80261e:	0f 86 8a 00 00 00    	jbe    8026ae <alloc_block_FF+0x31d>
				{
					struct BlockMetaData* newBlockAfterbrk = (struct BlockMetaData*)((uint32)oldbrk +  size + sizeOfMetaData());
  802624:	8b 55 e4             	mov    -0x1c(%ebp),%edx
  802627:	8b 45 08             	mov    0x8(%ebp),%eax
  80262a:	01 d0                	add    %edx,%eax
  80262c:	83 c0 10             	add    $0x10,%eax
  80262f:	89 45 d4             	mov    %eax,-0x2c(%ebp)
					LIST_INSERT_TAIL(&list, newBlockAfterbrk);
  802632:	83 7d d4 00          	cmpl   $0x0,-0x2c(%ebp)
  802636:	75 17                	jne    80264f <alloc_block_FF+0x2be>
  802638:	83 ec 04             	sub    $0x4,%esp
  80263b:	68 40 43 80 00       	push   $0x804340
  802640:	68 a7 00 00 00       	push   $0xa7
  802645:	68 63 43 80 00       	push   $0x804363
  80264a:	e8 ca 0c 00 00       	call   803319 <_panic>
  80264f:	8b 15 44 51 90 00    	mov    0x905144,%edx
  802655:	8b 45 d4             	mov    -0x2c(%ebp),%eax
  802658:	89 50 0c             	mov    %edx,0xc(%eax)
  80265b:	8b 45 d4             	mov    -0x2c(%ebp),%eax
  80265e:	8b 40 0c             	mov    0xc(%eax),%eax
  802661:	85 c0                	test   %eax,%eax
  802663:	74 0d                	je     802672 <alloc_block_FF+0x2e1>
  802665:	a1 44 51 90 00       	mov    0x905144,%eax
  80266a:	8b 55 d4             	mov    -0x2c(%ebp),%edx
  80266d:	89 50 08             	mov    %edx,0x8(%eax)
  802670:	eb 08                	jmp    80267a <alloc_block_FF+0x2e9>
  802672:	8b 45 d4             	mov    -0x2c(%ebp),%eax
  802675:	a3 40 51 90 00       	mov    %eax,0x905140
  80267a:	8b 45 d4             	mov    -0x2c(%ebp),%eax
  80267d:	a3 44 51 90 00       	mov    %eax,0x905144
  802682:	8b 45 d4             	mov    -0x2c(%ebp),%eax
  802685:	c7 40 08 00 00 00 00 	movl   $0x0,0x8(%eax)
  80268c:	a1 4c 51 90 00       	mov    0x90514c,%eax
  802691:	40                   	inc    %eax
  802692:	a3 4c 51 90 00       	mov    %eax,0x90514c
					newBlockAfterbrk->size = brksz -(size + sizeOfMetaData());
  802697:	8b 45 dc             	mov    -0x24(%ebp),%eax
  80269a:	2b 45 08             	sub    0x8(%ebp),%eax
  80269d:	8d 50 f0             	lea    -0x10(%eax),%edx
  8026a0:	8b 45 d4             	mov    -0x2c(%ebp),%eax
  8026a3:	89 10                	mov    %edx,(%eax)
					newBlockAfterbrk->is_free = 1;
  8026a5:	8b 45 d4             	mov    -0x2c(%ebp),%eax
  8026a8:	c6 40 04 01          	movb   $0x1,0x4(%eax)
  8026ac:	eb 08                	jmp    8026b6 <alloc_block_FF+0x325>
				}
				else
				{
					newBlock->size= brksz;
  8026ae:	8b 45 d8             	mov    -0x28(%ebp),%eax
  8026b1:	8b 55 dc             	mov    -0x24(%ebp),%edx
  8026b4:	89 10                	mov    %edx,(%eax)
				}

			}

			return newBlock+1;
  8026b6:	8b 45 d8             	mov    -0x28(%ebp),%eax
  8026b9:	83 c0 10             	add    $0x10,%eax
  8026bc:	eb 05                	jmp    8026c3 <alloc_block_FF+0x332>
		}
		else
		{
			return NULL;
  8026be:	b8 00 00 00 00       	mov    $0x0,%eax
		}


	return NULL;
}
  8026c3:	c9                   	leave  
  8026c4:	c3                   	ret    

008026c5 <alloc_block_BF>:
//=========================================
// [5] ALLOCATE BLOCK BY BEST FIT:
//=========================================
void *alloc_block_BF(uint32 size)
{
  8026c5:	55                   	push   %ebp
  8026c6:	89 e5                	mov    %esp,%ebp
  8026c8:	83 ec 18             	sub    $0x18,%esp
	struct BlockMetaData* iterator;
	struct BlockMetaData* BF = NULL;
  8026cb:	c7 45 f0 00 00 00 00 	movl   $0x0,-0x10(%ebp)

	if (size == 0)
  8026d2:	83 7d 08 00          	cmpl   $0x0,0x8(%ebp)
  8026d6:	75 0a                	jne    8026e2 <alloc_block_BF+0x1d>
	{
		return NULL;
  8026d8:	b8 00 00 00 00       	mov    $0x0,%eax
  8026dd:	e9 40 02 00 00       	jmp    802922 <alloc_block_BF+0x25d>
	}

	LIST_FOREACH(iterator, &list)
  8026e2:	a1 40 51 90 00       	mov    0x905140,%eax
  8026e7:	89 45 f4             	mov    %eax,-0xc(%ebp)
  8026ea:	eb 66                	jmp    802752 <alloc_block_BF+0x8d>
	{
		if (iterator->is_free == 1 && (size + sizeOfMetaData() == iterator->size))
  8026ec:	8b 45 f4             	mov    -0xc(%ebp),%eax
  8026ef:	8a 40 04             	mov    0x4(%eax),%al
  8026f2:	3c 01                	cmp    $0x1,%al
  8026f4:	75 21                	jne    802717 <alloc_block_BF+0x52>
  8026f6:	8b 45 08             	mov    0x8(%ebp),%eax
  8026f9:	8d 50 10             	lea    0x10(%eax),%edx
  8026fc:	8b 45 f4             	mov    -0xc(%ebp),%eax
  8026ff:	8b 00                	mov    (%eax),%eax
  802701:	39 c2                	cmp    %eax,%edx
  802703:	75 12                	jne    802717 <alloc_block_BF+0x52>
		{
			iterator->is_free = 0;
  802705:	8b 45 f4             	mov    -0xc(%ebp),%eax
  802708:	c6 40 04 00          	movb   $0x0,0x4(%eax)
			return iterator + 1;
  80270c:	8b 45 f4             	mov    -0xc(%ebp),%eax
  80270f:	83 c0 10             	add    $0x10,%eax
  802712:	e9 0b 02 00 00       	jmp    802922 <alloc_block_BF+0x25d>
		}
		else if (iterator->is_free == 1&& (size + sizeOfMetaData() <= iterator->size))
  802717:	8b 45 f4             	mov    -0xc(%ebp),%eax
  80271a:	8a 40 04             	mov    0x4(%eax),%al
  80271d:	3c 01                	cmp    $0x1,%al
  80271f:	75 29                	jne    80274a <alloc_block_BF+0x85>
  802721:	8b 45 08             	mov    0x8(%ebp),%eax
  802724:	8d 50 10             	lea    0x10(%eax),%edx
  802727:	8b 45 f4             	mov    -0xc(%ebp),%eax
  80272a:	8b 00                	mov    (%eax),%eax
  80272c:	39 c2                	cmp    %eax,%edx
  80272e:	77 1a                	ja     80274a <alloc_block_BF+0x85>
		{
			if (BF == NULL || iterator->size < BF->size)
  802730:	83 7d f0 00          	cmpl   $0x0,-0x10(%ebp)
  802734:	74 0e                	je     802744 <alloc_block_BF+0x7f>
  802736:	8b 45 f4             	mov    -0xc(%ebp),%eax
  802739:	8b 10                	mov    (%eax),%edx
  80273b:	8b 45 f0             	mov    -0x10(%ebp),%eax
  80273e:	8b 00                	mov    (%eax),%eax
  802740:	39 c2                	cmp    %eax,%edx
  802742:	73 06                	jae    80274a <alloc_block_BF+0x85>
			{
				BF = iterator;
  802744:	8b 45 f4             	mov    -0xc(%ebp),%eax
  802747:	89 45 f0             	mov    %eax,-0x10(%ebp)
	if (size == 0)
	{
		return NULL;
	}

	LIST_FOREACH(iterator, &list)
  80274a:	a1 48 51 90 00       	mov    0x905148,%eax
  80274f:	89 45 f4             	mov    %eax,-0xc(%ebp)
  802752:	83 7d f4 00          	cmpl   $0x0,-0xc(%ebp)
  802756:	74 08                	je     802760 <alloc_block_BF+0x9b>
  802758:	8b 45 f4             	mov    -0xc(%ebp),%eax
  80275b:	8b 40 08             	mov    0x8(%eax),%eax
  80275e:	eb 05                	jmp    802765 <alloc_block_BF+0xa0>
  802760:	b8 00 00 00 00       	mov    $0x0,%eax
  802765:	a3 48 51 90 00       	mov    %eax,0x905148
  80276a:	a1 48 51 90 00       	mov    0x905148,%eax
  80276f:	85 c0                	test   %eax,%eax
  802771:	0f 85 75 ff ff ff    	jne    8026ec <alloc_block_BF+0x27>
  802777:	83 7d f4 00          	cmpl   $0x0,-0xc(%ebp)
  80277b:	0f 85 6b ff ff ff    	jne    8026ec <alloc_block_BF+0x27>
				BF = iterator;
			}
		}
	}

	if (BF != NULL)
  802781:	83 7d f0 00          	cmpl   $0x0,-0x10(%ebp)
  802785:	0f 84 f8 00 00 00    	je     802883 <alloc_block_BF+0x1be>
	{
		if (size + sizeOfMetaData() <= BF->size)
  80278b:	8b 45 08             	mov    0x8(%ebp),%eax
  80278e:	8d 50 10             	lea    0x10(%eax),%edx
  802791:	8b 45 f0             	mov    -0x10(%ebp),%eax
  802794:	8b 00                	mov    (%eax),%eax
  802796:	39 c2                	cmp    %eax,%edx
  802798:	0f 87 e5 00 00 00    	ja     802883 <alloc_block_BF+0x1be>
		{
			if (BF->size - (size + sizeOfMetaData()) >= sizeOfMetaData())
  80279e:	8b 45 f0             	mov    -0x10(%ebp),%eax
  8027a1:	8b 00                	mov    (%eax),%eax
  8027a3:	2b 45 08             	sub    0x8(%ebp),%eax
  8027a6:	83 e8 10             	sub    $0x10,%eax
  8027a9:	83 f8 0f             	cmp    $0xf,%eax
  8027ac:	0f 86 bf 00 00 00    	jbe    802871 <alloc_block_BF+0x1ac>
			{
				struct BlockMetaData* newBlockAfterSplit = (struct BlockMetaData *) ((uint32) BF + size + sizeOfMetaData());
  8027b2:	8b 55 f0             	mov    -0x10(%ebp),%edx
  8027b5:	8b 45 08             	mov    0x8(%ebp),%eax
  8027b8:	01 d0                	add    %edx,%eax
  8027ba:	83 c0 10             	add    $0x10,%eax
  8027bd:	89 45 ec             	mov    %eax,-0x14(%ebp)
				newBlockAfterSplit->size = 0;
  8027c0:	8b 45 ec             	mov    -0x14(%ebp),%eax
  8027c3:	c7 00 00 00 00 00    	movl   $0x0,(%eax)
				newBlockAfterSplit->size = BF->size - (size + sizeOfMetaData());
  8027c9:	8b 45 f0             	mov    -0x10(%ebp),%eax
  8027cc:	8b 00                	mov    (%eax),%eax
  8027ce:	2b 45 08             	sub    0x8(%ebp),%eax
  8027d1:	8d 50 f0             	lea    -0x10(%eax),%edx
  8027d4:	8b 45 ec             	mov    -0x14(%ebp),%eax
  8027d7:	89 10                	mov    %edx,(%eax)
				newBlockAfterSplit->is_free = 1;
  8027d9:	8b 45 ec             	mov    -0x14(%ebp),%eax
  8027dc:	c6 40 04 01          	movb   $0x1,0x4(%eax)
				LIST_INSERT_AFTER(&list, BF, newBlockAfterSplit);
  8027e0:	83 7d f0 00          	cmpl   $0x0,-0x10(%ebp)
  8027e4:	74 06                	je     8027ec <alloc_block_BF+0x127>
  8027e6:	83 7d ec 00          	cmpl   $0x0,-0x14(%ebp)
  8027ea:	75 17                	jne    802803 <alloc_block_BF+0x13e>
  8027ec:	83 ec 04             	sub    $0x4,%esp
  8027ef:	68 7c 43 80 00       	push   $0x80437c
  8027f4:	68 e3 00 00 00       	push   $0xe3
  8027f9:	68 63 43 80 00       	push   $0x804363
  8027fe:	e8 16 0b 00 00       	call   803319 <_panic>
  802803:	8b 45 f0             	mov    -0x10(%ebp),%eax
  802806:	8b 50 08             	mov    0x8(%eax),%edx
  802809:	8b 45 ec             	mov    -0x14(%ebp),%eax
  80280c:	89 50 08             	mov    %edx,0x8(%eax)
  80280f:	8b 45 ec             	mov    -0x14(%ebp),%eax
  802812:	8b 40 08             	mov    0x8(%eax),%eax
  802815:	85 c0                	test   %eax,%eax
  802817:	74 0c                	je     802825 <alloc_block_BF+0x160>
  802819:	8b 45 f0             	mov    -0x10(%ebp),%eax
  80281c:	8b 40 08             	mov    0x8(%eax),%eax
  80281f:	8b 55 ec             	mov    -0x14(%ebp),%edx
  802822:	89 50 0c             	mov    %edx,0xc(%eax)
  802825:	8b 45 f0             	mov    -0x10(%ebp),%eax
  802828:	8b 55 ec             	mov    -0x14(%ebp),%edx
  80282b:	89 50 08             	mov    %edx,0x8(%eax)
  80282e:	8b 45 ec             	mov    -0x14(%ebp),%eax
  802831:	8b 55 f0             	mov    -0x10(%ebp),%edx
  802834:	89 50 0c             	mov    %edx,0xc(%eax)
  802837:	8b 45 ec             	mov    -0x14(%ebp),%eax
  80283a:	8b 40 08             	mov    0x8(%eax),%eax
  80283d:	85 c0                	test   %eax,%eax
  80283f:	75 08                	jne    802849 <alloc_block_BF+0x184>
  802841:	8b 45 ec             	mov    -0x14(%ebp),%eax
  802844:	a3 44 51 90 00       	mov    %eax,0x905144
  802849:	a1 4c 51 90 00       	mov    0x90514c,%eax
  80284e:	40                   	inc    %eax
  80284f:	a3 4c 51 90 00       	mov    %eax,0x90514c

				BF->size = size + sizeOfMetaData();
  802854:	8b 45 08             	mov    0x8(%ebp),%eax
  802857:	8d 50 10             	lea    0x10(%eax),%edx
  80285a:	8b 45 f0             	mov    -0x10(%ebp),%eax
  80285d:	89 10                	mov    %edx,(%eax)
				BF->is_free = 0;
  80285f:	8b 45 f0             	mov    -0x10(%ebp),%eax
  802862:	c6 40 04 00          	movb   $0x0,0x4(%eax)

				return BF + 1;
  802866:	8b 45 f0             	mov    -0x10(%ebp),%eax
  802869:	83 c0 10             	add    $0x10,%eax
  80286c:	e9 b1 00 00 00       	jmp    802922 <alloc_block_BF+0x25d>
			}
			else
			{
				BF->is_free = 0;
  802871:	8b 45 f0             	mov    -0x10(%ebp),%eax
  802874:	c6 40 04 00          	movb   $0x0,0x4(%eax)
				return BF + 1;
  802878:	8b 45 f0             	mov    -0x10(%ebp),%eax
  80287b:	83 c0 10             	add    $0x10,%eax
  80287e:	e9 9f 00 00 00       	jmp    802922 <alloc_block_BF+0x25d>
			}
		}
	}

	struct BlockMetaData* newBlock = (struct BlockMetaData*) sbrk(size + sizeOfMetaData());
  802883:	8b 45 08             	mov    0x8(%ebp),%eax
  802886:	83 c0 10             	add    $0x10,%eax
  802889:	83 ec 0c             	sub    $0xc,%esp
  80288c:	50                   	push   %eax
  80288d:	e8 ee ee ff ff       	call   801780 <sbrk>
  802892:	83 c4 10             	add    $0x10,%esp
  802895:	89 45 e8             	mov    %eax,-0x18(%ebp)

	if (newBlock != (void*) -1)
  802898:	83 7d e8 ff          	cmpl   $0xffffffff,-0x18(%ebp)
  80289c:	74 7f                	je     80291d <alloc_block_BF+0x258>
	{
		LIST_INSERT_TAIL(&list, newBlock);
  80289e:	83 7d e8 00          	cmpl   $0x0,-0x18(%ebp)
  8028a2:	75 17                	jne    8028bb <alloc_block_BF+0x1f6>
  8028a4:	83 ec 04             	sub    $0x4,%esp
  8028a7:	68 40 43 80 00       	push   $0x804340
  8028ac:	68 f6 00 00 00       	push   $0xf6
  8028b1:	68 63 43 80 00       	push   $0x804363
  8028b6:	e8 5e 0a 00 00       	call   803319 <_panic>
  8028bb:	8b 15 44 51 90 00    	mov    0x905144,%edx
  8028c1:	8b 45 e8             	mov    -0x18(%ebp),%eax
  8028c4:	89 50 0c             	mov    %edx,0xc(%eax)
  8028c7:	8b 45 e8             	mov    -0x18(%ebp),%eax
  8028ca:	8b 40 0c             	mov    0xc(%eax),%eax
  8028cd:	85 c0                	test   %eax,%eax
  8028cf:	74 0d                	je     8028de <alloc_block_BF+0x219>
  8028d1:	a1 44 51 90 00       	mov    0x905144,%eax
  8028d6:	8b 55 e8             	mov    -0x18(%ebp),%edx
  8028d9:	89 50 08             	mov    %edx,0x8(%eax)
  8028dc:	eb 08                	jmp    8028e6 <alloc_block_BF+0x221>
  8028de:	8b 45 e8             	mov    -0x18(%ebp),%eax
  8028e1:	a3 40 51 90 00       	mov    %eax,0x905140
  8028e6:	8b 45 e8             	mov    -0x18(%ebp),%eax
  8028e9:	a3 44 51 90 00       	mov    %eax,0x905144
  8028ee:	8b 45 e8             	mov    -0x18(%ebp),%eax
  8028f1:	c7 40 08 00 00 00 00 	movl   $0x0,0x8(%eax)
  8028f8:	a1 4c 51 90 00       	mov    0x90514c,%eax
  8028fd:	40                   	inc    %eax
  8028fe:	a3 4c 51 90 00       	mov    %eax,0x90514c
		newBlock->size = size + sizeOfMetaData();
  802903:	8b 45 08             	mov    0x8(%ebp),%eax
  802906:	8d 50 10             	lea    0x10(%eax),%edx
  802909:	8b 45 e8             	mov    -0x18(%ebp),%eax
  80290c:	89 10                	mov    %edx,(%eax)
		newBlock->is_free = 0;
  80290e:	8b 45 e8             	mov    -0x18(%ebp),%eax
  802911:	c6 40 04 00          	movb   $0x0,0x4(%eax)
		return newBlock + 1;
  802915:	8b 45 e8             	mov    -0x18(%ebp),%eax
  802918:	83 c0 10             	add    $0x10,%eax
  80291b:	eb 05                	jmp    802922 <alloc_block_BF+0x25d>
	}
	else
	{
		return NULL;
  80291d:	b8 00 00 00 00       	mov    $0x0,%eax
	}

	return NULL;
}
  802922:	c9                   	leave  
  802923:	c3                   	ret    

00802924 <alloc_block_WF>:

//=========================================
// [6] ALLOCATE BLOCK BY WORST FIT:
//=========================================
void *alloc_block_WF(uint32 size) {
  802924:	55                   	push   %ebp
  802925:	89 e5                	mov    %esp,%ebp
  802927:	83 ec 08             	sub    $0x8,%esp
	panic("alloc_block_WF is not implemented yet");
  80292a:	83 ec 04             	sub    $0x4,%esp
  80292d:	68 b0 43 80 00       	push   $0x8043b0
  802932:	68 07 01 00 00       	push   $0x107
  802937:	68 63 43 80 00       	push   $0x804363
  80293c:	e8 d8 09 00 00       	call   803319 <_panic>

00802941 <alloc_block_NF>:
}

//=========================================
// [7] ALLOCATE BLOCK BY NEXT FIT:
//=========================================
void *alloc_block_NF(uint32 size) {
  802941:	55                   	push   %ebp
  802942:	89 e5                	mov    %esp,%ebp
  802944:	83 ec 08             	sub    $0x8,%esp
	panic("alloc_block_NF is not implemented yet");
  802947:	83 ec 04             	sub    $0x4,%esp
  80294a:	68 d8 43 80 00       	push   $0x8043d8
  80294f:	68 0f 01 00 00       	push   $0x10f
  802954:	68 63 43 80 00       	push   $0x804363
  802959:	e8 bb 09 00 00       	call   803319 <_panic>

0080295e <free_block>:

//===================================================
// [8] FREE BLOCK WITH COALESCING:
//===================================================
void free_block(void *va)
{
  80295e:	55                   	push   %ebp
  80295f:	89 e5                	mov    %esp,%ebp
  802961:	83 ec 28             	sub    $0x28,%esp


	if (va == NULL)
  802964:	83 7d 08 00          	cmpl   $0x0,0x8(%ebp)
  802968:	0f 84 ee 05 00 00    	je     802f5c <free_block+0x5fe>
		return;

	struct BlockMetaData* block_pointer = ((struct BlockMetaData*) va - 1);
  80296e:	8b 45 08             	mov    0x8(%ebp),%eax
  802971:	83 e8 10             	sub    $0x10,%eax
  802974:	89 45 ec             	mov    %eax,-0x14(%ebp)

	uint8 flagx = 0;
  802977:	c6 45 f7 00          	movb   $0x0,-0x9(%ebp)
	struct BlockMetaData* it;
	LIST_FOREACH(it, &list)
  80297b:	a1 40 51 90 00       	mov    0x905140,%eax
  802980:	89 45 f0             	mov    %eax,-0x10(%ebp)
  802983:	eb 16                	jmp    80299b <free_block+0x3d>
	{
		if (block_pointer == it)
  802985:	8b 45 ec             	mov    -0x14(%ebp),%eax
  802988:	3b 45 f0             	cmp    -0x10(%ebp),%eax
  80298b:	75 06                	jne    802993 <free_block+0x35>
		{
			flagx = 1;
  80298d:	c6 45 f7 01          	movb   $0x1,-0x9(%ebp)
			break;
  802991:	eb 2f                	jmp    8029c2 <free_block+0x64>

	struct BlockMetaData* block_pointer = ((struct BlockMetaData*) va - 1);

	uint8 flagx = 0;
	struct BlockMetaData* it;
	LIST_FOREACH(it, &list)
  802993:	a1 48 51 90 00       	mov    0x905148,%eax
  802998:	89 45 f0             	mov    %eax,-0x10(%ebp)
  80299b:	83 7d f0 00          	cmpl   $0x0,-0x10(%ebp)
  80299f:	74 08                	je     8029a9 <free_block+0x4b>
  8029a1:	8b 45 f0             	mov    -0x10(%ebp),%eax
  8029a4:	8b 40 08             	mov    0x8(%eax),%eax
  8029a7:	eb 05                	jmp    8029ae <free_block+0x50>
  8029a9:	b8 00 00 00 00       	mov    $0x0,%eax
  8029ae:	a3 48 51 90 00       	mov    %eax,0x905148
  8029b3:	a1 48 51 90 00       	mov    0x905148,%eax
  8029b8:	85 c0                	test   %eax,%eax
  8029ba:	75 c9                	jne    802985 <free_block+0x27>
  8029bc:	83 7d f0 00          	cmpl   $0x0,-0x10(%ebp)
  8029c0:	75 c3                	jne    802985 <free_block+0x27>
		{
			flagx = 1;
			break;
		}
	}
	if (flagx == 0)
  8029c2:	80 7d f7 00          	cmpb   $0x0,-0x9(%ebp)
  8029c6:	0f 84 93 05 00 00    	je     802f5f <free_block+0x601>
		return;
	if (va == NULL)
  8029cc:	83 7d 08 00          	cmpl   $0x0,0x8(%ebp)
  8029d0:	0f 84 8c 05 00 00    	je     802f62 <free_block+0x604>
		return;

	struct BlockMetaData* prev_block = LIST_PREV(block_pointer);
  8029d6:	8b 45 ec             	mov    -0x14(%ebp),%eax
  8029d9:	8b 40 0c             	mov    0xc(%eax),%eax
  8029dc:	89 45 e8             	mov    %eax,-0x18(%ebp)
	struct BlockMetaData* next_block = LIST_NEXT(block_pointer);
  8029df:	8b 45 ec             	mov    -0x14(%ebp),%eax
  8029e2:	8b 40 08             	mov    0x8(%eax),%eax
  8029e5:	89 45 e4             	mov    %eax,-0x1c(%ebp)

	if (prev_block == NULL && next_block == NULL) //only block in list 1
  8029e8:	83 7d e8 00          	cmpl   $0x0,-0x18(%ebp)
  8029ec:	75 12                	jne    802a00 <free_block+0xa2>
  8029ee:	83 7d e4 00          	cmpl   $0x0,-0x1c(%ebp)
  8029f2:	75 0c                	jne    802a00 <free_block+0xa2>
	{
		block_pointer->is_free = 1;
  8029f4:	8b 45 ec             	mov    -0x14(%ebp),%eax
  8029f7:	c6 40 04 01          	movb   $0x1,0x4(%eax)
		return;
  8029fb:	e9 63 05 00 00       	jmp    802f63 <free_block+0x605>
	}
	else if (prev_block == NULL && next_block->is_free == 1) //head next free --> merge 2
  802a00:	83 7d e8 00          	cmpl   $0x0,-0x18(%ebp)
  802a04:	0f 85 ca 00 00 00    	jne    802ad4 <free_block+0x176>
  802a0a:	8b 45 e4             	mov    -0x1c(%ebp),%eax
  802a0d:	8a 40 04             	mov    0x4(%eax),%al
  802a10:	3c 01                	cmp    $0x1,%al
  802a12:	0f 85 bc 00 00 00    	jne    802ad4 <free_block+0x176>
	{
		block_pointer->is_free = 1;
  802a18:	8b 45 ec             	mov    -0x14(%ebp),%eax
  802a1b:	c6 40 04 01          	movb   $0x1,0x4(%eax)
		block_pointer->size += next_block->size;
  802a1f:	8b 45 ec             	mov    -0x14(%ebp),%eax
  802a22:	8b 10                	mov    (%eax),%edx
  802a24:	8b 45 e4             	mov    -0x1c(%ebp),%eax
  802a27:	8b 00                	mov    (%eax),%eax
  802a29:	01 c2                	add    %eax,%edx
  802a2b:	8b 45 ec             	mov    -0x14(%ebp),%eax
  802a2e:	89 10                	mov    %edx,(%eax)
		next_block->size = 0;
  802a30:	8b 45 e4             	mov    -0x1c(%ebp),%eax
  802a33:	c7 00 00 00 00 00    	movl   $0x0,(%eax)
		next_block->is_free = 0;
  802a39:	8b 45 e4             	mov    -0x1c(%ebp),%eax
  802a3c:	c6 40 04 00          	movb   $0x0,0x4(%eax)
		LIST_REMOVE(&list, next_block);
  802a40:	83 7d e4 00          	cmpl   $0x0,-0x1c(%ebp)
  802a44:	75 17                	jne    802a5d <free_block+0xff>
  802a46:	83 ec 04             	sub    $0x4,%esp
  802a49:	68 fe 43 80 00       	push   $0x8043fe
  802a4e:	68 3c 01 00 00       	push   $0x13c
  802a53:	68 63 43 80 00       	push   $0x804363
  802a58:	e8 bc 08 00 00       	call   803319 <_panic>
  802a5d:	8b 45 e4             	mov    -0x1c(%ebp),%eax
  802a60:	8b 40 08             	mov    0x8(%eax),%eax
  802a63:	85 c0                	test   %eax,%eax
  802a65:	74 11                	je     802a78 <free_block+0x11a>
  802a67:	8b 45 e4             	mov    -0x1c(%ebp),%eax
  802a6a:	8b 40 08             	mov    0x8(%eax),%eax
  802a6d:	8b 55 e4             	mov    -0x1c(%ebp),%edx
  802a70:	8b 52 0c             	mov    0xc(%edx),%edx
  802a73:	89 50 0c             	mov    %edx,0xc(%eax)
  802a76:	eb 0b                	jmp    802a83 <free_block+0x125>
  802a78:	8b 45 e4             	mov    -0x1c(%ebp),%eax
  802a7b:	8b 40 0c             	mov    0xc(%eax),%eax
  802a7e:	a3 44 51 90 00       	mov    %eax,0x905144
  802a83:	8b 45 e4             	mov    -0x1c(%ebp),%eax
  802a86:	8b 40 0c             	mov    0xc(%eax),%eax
  802a89:	85 c0                	test   %eax,%eax
  802a8b:	74 11                	je     802a9e <free_block+0x140>
  802a8d:	8b 45 e4             	mov    -0x1c(%ebp),%eax
  802a90:	8b 40 0c             	mov    0xc(%eax),%eax
  802a93:	8b 55 e4             	mov    -0x1c(%ebp),%edx
  802a96:	8b 52 08             	mov    0x8(%edx),%edx
  802a99:	89 50 08             	mov    %edx,0x8(%eax)
  802a9c:	eb 0b                	jmp    802aa9 <free_block+0x14b>
  802a9e:	8b 45 e4             	mov    -0x1c(%ebp),%eax
  802aa1:	8b 40 08             	mov    0x8(%eax),%eax
  802aa4:	a3 40 51 90 00       	mov    %eax,0x905140
  802aa9:	8b 45 e4             	mov    -0x1c(%ebp),%eax
  802aac:	c7 40 08 00 00 00 00 	movl   $0x0,0x8(%eax)
  802ab3:	8b 45 e4             	mov    -0x1c(%ebp),%eax
  802ab6:	c7 40 0c 00 00 00 00 	movl   $0x0,0xc(%eax)
  802abd:	a1 4c 51 90 00       	mov    0x90514c,%eax
  802ac2:	48                   	dec    %eax
  802ac3:	a3 4c 51 90 00       	mov    %eax,0x90514c
		next_block = 0;
  802ac8:	c7 45 e4 00 00 00 00 	movl   $0x0,-0x1c(%ebp)
		return;
  802acf:	e9 8f 04 00 00       	jmp    802f63 <free_block+0x605>
	}
	else if (prev_block == NULL && next_block->is_free == 0) //head next not free 3
  802ad4:	83 7d e8 00          	cmpl   $0x0,-0x18(%ebp)
  802ad8:	75 16                	jne    802af0 <free_block+0x192>
  802ada:	8b 45 e4             	mov    -0x1c(%ebp),%eax
  802add:	8a 40 04             	mov    0x4(%eax),%al
  802ae0:	84 c0                	test   %al,%al
  802ae2:	75 0c                	jne    802af0 <free_block+0x192>
	{
		block_pointer->is_free = 1;
